Component: ARM Compiler 5.06 update 4 (build 422) Tool: armlink [4d35d2]

==============================================================================

Section Cross References

    startup_stm32f10x_hd.o(RESET) refers to startup_stm32f10x_hd.o(STACK) for __initial_sp
    startup_stm32f10x_hd.o(RESET) refers to startup_stm32f10x_hd.o(.text) for Reset_Handler
    startup_stm32f10x_hd.o(RESET) refers to stm32f10x_it.o(i.NMI_Handler) for NMI_Handler
    startup_stm32f10x_hd.o(RESET) refers to stm32f10x_it.o(i.HardFault_Handler) for HardFault_Handler
    startup_stm32f10x_hd.o(RESET) refers to stm32f10x_it.o(i.MemManage_Handler) for MemManage_Handler
    startup_stm32f10x_hd.o(RESET) refers to stm32f10x_it.o(i.BusFault_Handler) for BusFault_Handler
    startup_stm32f10x_hd.o(RESET) refers to stm32f10x_it.o(i.UsageFault_Handler) for UsageFault_Handler
    startup_stm32f10x_hd.o(RESET) refers to stm32f10x_it.o(i.SVC_Handler) for SVC_Handler
    startup_stm32f10x_hd.o(RESET) refers to stm32f10x_it.o(i.DebugMon_Handler) for DebugMon_Handler
    startup_stm32f10x_hd.o(RESET) refers to stm32f10x_it.o(i.PendSV_Handler) for PendSV_Handler
    startup_stm32f10x_hd.o(RESET) refers to stm32f10x_it.o(i.SysTick_Handler) for SysTick_Handler
    startup_stm32f10x_hd.o(RESET) refers to stm32f10x_it.o(i.EXTI1_IRQHandler) for EXTI1_IRQHandler
    startup_stm32f10x_hd.o(RESET) refers to stm32f10x_it.o(i.EXTI15_10_IRQHandler) for EXTI15_10_IRQHandler
    startup_stm32f10x_hd.o(RESET) refers to stm32f10x_it.o(i.TIM6_IRQHandler) for TIM6_IRQHandler
    startup_stm32f10x_hd.o(.text) refers to system_stm32f10x.o(i.SystemInit) for SystemInit
    startup_stm32f10x_hd.o(.text) refers to entry.o(.ARM.Collect$$$$00000000) for __main
    system_stm32f10x.o(i.SetSysClock) refers to system_stm32f10x.o(i.SetSysClockTo72) for SetSysClockTo72
    system_stm32f10x.o(i.SystemCoreClockUpdate) refers to system_stm32f10x.o(.data) for SystemCoreClock
    system_stm32f10x.o(i.SystemInit) refers to system_stm32f10x.o(i.SetSysClock) for SetSysClock
    stm32f10x_adc.o(i.ADC_DeInit) refers to stm32f10x_rcc.o(i.RCC_APB2PeriphResetCmd) for RCC_APB2PeriphResetCmd
    stm32f10x_bkp.o(i.BKP_DeInit) refers to stm32f10x_rcc.o(i.RCC_BackupResetCmd) for RCC_BackupResetCmd
    stm32f10x_can.o(i.CAN_DeInit) refers to stm32f10x_rcc.o(i.RCC_APB1PeriphResetCmd) for RCC_APB1PeriphResetCmd
    stm32f10x_can.o(i.CAN_GetITStatus) refers to stm32f10x_can.o(i.CheckITStatus) for CheckITStatus
    stm32f10x_cec.o(i.CEC_DeInit) refers to stm32f10x_rcc.o(i.RCC_APB1PeriphResetCmd) for RCC_APB1PeriphResetCmd
    stm32f10x_dac.o(i.DAC_DeInit) refers to stm32f10x_rcc.o(i.RCC_APB1PeriphResetCmd) for RCC_APB1PeriphResetCmd
    stm32f10x_flash.o(i.FLASH_EnableWriteProtection) refers to stm32f10x_flash.o(i.FLASH_WaitForLastOperation) for FLASH_WaitForLastOperation
    stm32f10x_flash.o(i.FLASH_EraseAllBank1Pages) refers to stm32f10x_flash.o(i.FLASH_WaitForLastBank1Operation) for FLASH_WaitForLastBank1Operation
    stm32f10x_flash.o(i.FLASH_EraseAllPages) refers to stm32f10x_flash.o(i.FLASH_WaitForLastOperation) for FLASH_WaitForLastOperation
    stm32f10x_flash.o(i.FLASH_EraseOptionBytes) refers to stm32f10x_flash.o(i.FLASH_GetReadOutProtectionStatus) for FLASH_GetReadOutProtectionStatus
    stm32f10x_flash.o(i.FLASH_EraseOptionBytes) refers to stm32f10x_flash.o(i.FLASH_WaitForLastOperation) for FLASH_WaitForLastOperation
    stm32f10x_flash.o(i.FLASH_ErasePage) refers to stm32f10x_flash.o(i.FLASH_WaitForLastOperation) for FLASH_WaitForLastOperation
    stm32f10x_flash.o(i.FLASH_ProgramHalfWord) refers to stm32f10x_flash.o(i.FLASH_WaitForLastOperation) for FLASH_WaitForLastOperation
    stm32f10x_flash.o(i.FLASH_ProgramOptionByteData) refers to stm32f10x_flash.o(i.FLASH_WaitForLastOperation) for FLASH_WaitForLastOperation
    stm32f10x_flash.o(i.FLASH_ProgramWord) refers to stm32f10x_flash.o(i.FLASH_WaitForLastOperation) for FLASH_WaitForLastOperation
    stm32f10x_flash.o(i.FLASH_ReadOutProtection) refers to stm32f10x_flash.o(i.FLASH_WaitForLastOperation) for FLASH_WaitForLastOperation
    stm32f10x_flash.o(i.FLASH_UserOptionByteConfig) refers to stm32f10x_flash.o(i.FLASH_WaitForLastOperation) for FLASH_WaitForLastOperation
    stm32f10x_flash.o(i.FLASH_WaitForLastBank1Operation) refers to stm32f10x_flash.o(i.FLASH_GetBank1Status) for FLASH_GetBank1Status
    stm32f10x_flash.o(i.FLASH_WaitForLastOperation) refers to stm32f10x_flash.o(i.FLASH_GetBank1Status) for FLASH_GetBank1Status
    stm32f10x_gpio.o(i.GPIO_AFIODeInit) refers to stm32f10x_rcc.o(i.RCC_APB2PeriphResetCmd) for RCC_APB2PeriphResetCmd
    stm32f10x_gpio.o(i.GPIO_DeInit) refers to stm32f10x_rcc.o(i.RCC_APB2PeriphResetCmd) for RCC_APB2PeriphResetCmd
    stm32f10x_i2c.o(i.I2C_DeInit) refers to stm32f10x_rcc.o(i.RCC_APB1PeriphResetCmd) for RCC_APB1PeriphResetCmd
    stm32f10x_i2c.o(i.I2C_Init) refers to stm32f10x_rcc.o(i.RCC_GetClocksFreq) for RCC_GetClocksFreq
    stm32f10x_pwr.o(i.PWR_DeInit) refers to stm32f10x_rcc.o(i.RCC_APB1PeriphResetCmd) for RCC_APB1PeriphResetCmd
    stm32f10x_rcc.o(i.RCC_GetClocksFreq) refers to stm32f10x_rcc.o(.data) for APBAHBPrescTable
    stm32f10x_rcc.o(i.RCC_WaitForHSEStartUp) refers to stm32f10x_rcc.o(i.RCC_GetFlagStatus) for RCC_GetFlagStatus
    stm32f10x_rtc.o(i.RTC_SetAlarm) refers to stm32f10x_rtc.o(i.RTC_EnterConfigMode) for RTC_EnterConfigMode
    stm32f10x_rtc.o(i.RTC_SetAlarm) refers to stm32f10x_rtc.o(i.RTC_ExitConfigMode) for RTC_ExitConfigMode
    stm32f10x_rtc.o(i.RTC_SetCounter) refers to stm32f10x_rtc.o(i.RTC_EnterConfigMode) for RTC_EnterConfigMode
    stm32f10x_rtc.o(i.RTC_SetCounter) refers to stm32f10x_rtc.o(i.RTC_ExitConfigMode) for RTC_ExitConfigMode
    stm32f10x_rtc.o(i.RTC_SetPrescaler) refers to stm32f10x_rtc.o(i.RTC_EnterConfigMode) for RTC_EnterConfigMode
    stm32f10x_rtc.o(i.RTC_SetPrescaler) refers to stm32f10x_rtc.o(i.RTC_ExitConfigMode) for RTC_ExitConfigMode
    stm32f10x_spi.o(i.I2S_Init) refers to stm32f10x_rcc.o(i.RCC_GetClocksFreq) for RCC_GetClocksFreq
    stm32f10x_spi.o(i.SPI_I2S_DeInit) refers to stm32f10x_rcc.o(i.RCC_APB2PeriphResetCmd) for RCC_APB2PeriphResetCmd
    stm32f10x_spi.o(i.SPI_I2S_DeInit) refers to stm32f10x_rcc.o(i.RCC_APB1PeriphResetCmd) for RCC_APB1PeriphResetCmd
    stm32f10x_tim.o(i.TIM_DeInit) refers to stm32f10x_rcc.o(i.RCC_APB2PeriphResetCmd) for RCC_APB2PeriphResetCmd
    stm32f10x_tim.o(i.TIM_DeInit) refers to stm32f10x_rcc.o(i.RCC_APB1PeriphResetCmd) for RCC_APB1PeriphResetCmd
    stm32f10x_tim.o(i.TIM_ETRClockMode1Config) refers to stm32f10x_tim.o(i.TIM_ETRConfig) for TIM_ETRConfig
    stm32f10x_tim.o(i.TIM_ETRClockMode2Config) refers to stm32f10x_tim.o(i.TIM_ETRConfig) for TIM_ETRConfig
    stm32f10x_tim.o(i.TIM_ICInit) refers to stm32f10x_tim.o(i.TI1_Config) for TI1_Config
    stm32f10x_tim.o(i.TIM_ICInit) refers to stm32f10x_tim.o(i.TIM_SetIC1Prescaler) for TIM_SetIC1Prescaler
    stm32f10x_tim.o(i.TIM_ICInit) refers to stm32f10x_tim.o(i.TI2_Config) for TI2_Config
    stm32f10x_tim.o(i.TIM_ICInit) refers to stm32f10x_tim.o(i.TIM_SetIC2Prescaler) for TIM_SetIC2Prescaler
    stm32f10x_tim.o(i.TIM_ICInit) refers to stm32f10x_tim.o(i.TI3_Config) for TI3_Config
    stm32f10x_tim.o(i.TIM_ICInit) refers to stm32f10x_tim.o(i.TIM_SetIC3Prescaler) for TIM_SetIC3Prescaler
    stm32f10x_tim.o(i.TIM_ICInit) refers to stm32f10x_tim.o(i.TI4_Config) for TI4_Config
    stm32f10x_tim.o(i.TIM_ICInit) refers to stm32f10x_tim.o(i.TIM_SetIC4Prescaler) for TIM_SetIC4Prescaler
    stm32f10x_tim.o(i.TIM_ITRxExternalClockConfig) refers to stm32f10x_tim.o(i.TIM_SelectInputTrigger) for TIM_SelectInputTrigger
    stm32f10x_tim.o(i.TIM_PWMIConfig) refers to stm32f10x_tim.o(i.TI1_Config) for TI1_Config
    stm32f10x_tim.o(i.TIM_PWMIConfig) refers to stm32f10x_tim.o(i.TIM_SetIC1Prescaler) for TIM_SetIC1Prescaler
    stm32f10x_tim.o(i.TIM_PWMIConfig) refers to stm32f10x_tim.o(i.TI2_Config) for TI2_Config
    stm32f10x_tim.o(i.TIM_PWMIConfig) refers to stm32f10x_tim.o(i.TIM_SetIC2Prescaler) for TIM_SetIC2Prescaler
    stm32f10x_tim.o(i.TIM_TIxExternalClockConfig) refers to stm32f10x_tim.o(i.TI2_Config) for TI2_Config
    stm32f10x_tim.o(i.TIM_TIxExternalClockConfig) refers to stm32f10x_tim.o(i.TI1_Config) for TI1_Config
    stm32f10x_tim.o(i.TIM_TIxExternalClockConfig) refers to stm32f10x_tim.o(i.TIM_SelectInputTrigger) for TIM_SelectInputTrigger
    stm32f10x_usart.o(i.USART_DeInit) refers to stm32f10x_rcc.o(i.RCC_APB2PeriphResetCmd) for RCC_APB2PeriphResetCmd
    stm32f10x_usart.o(i.USART_DeInit) refers to stm32f10x_rcc.o(i.RCC_APB1PeriphResetCmd) for RCC_APB1PeriphResetCmd
    stm32f10x_usart.o(i.USART_Init) refers to stm32f10x_rcc.o(i.RCC_GetClocksFreq) for RCC_GetClocksFreq
    stm32f10x_wwdg.o(i.WWDG_DeInit) refers to stm32f10x_rcc.o(i.RCC_APB1PeriphResetCmd) for RCC_APB1PeriphResetCmd
    main.o(i.main) refers to bsp_systick.o(i.SysTick_Init) for SysTick_Init
    main.o(i.main) refers to gpio_config.o(i.USART1_Config) for USART1_Config
    main.o(i.main) refers to gpio_config.o(i.USART1_DMA_Config) for USART1_DMA_Config
    main.o(i.main) refers to gpio_config.o(i.SPI_DATA_Init) for SPI_DATA_Init
    main.o(i.main) refers to i2c.o(i.gpio_i2c) for gpio_i2c
    main.o(i.main) refers to mpu6050.o(i.MPU6050_Init) for MPU6050_Init
    main.o(i.main) refers to bmp_280.o(i.BMP280_Init) for BMP280_Init
    main.o(i.main) refers to nr24l01_reg.o(i.init_NRF24L01) for init_NRF24L01
    main.o(i.main) refers to led_config.o(i.LED_GPIO_Config) for LED_GPIO_Config
    main.o(i.main) refers to oled.o(i.OLED_Init) for OLED_Init
    main.o(i.main) refers to pwm_config.o(i.TIM3_init) for TIM3_init
    main.o(i.main) refers to adc_dma.o(i.ADC1_Init) for ADC1_Init
    main.o(i.main) refers to bsp_exti.o(i.EXTI_PB1_Config) for EXTI_PB1_Config
    main.o(i.main) refers to tim_time.o(i.TIM7_Configuration) for TIM7_Configuration
    main.o(i.main) refers to ultrasonicwave.o(i.UltrasonicWave_Configuration) for UltrasonicWave_Configuration
    main.o(i.main) refers to flash_rw.o(i.Flash_data_init) for Flash_data_init
    main.o(i.main) refers to bsp_systick.o(i.Delay_ms) for Delay_ms
    main.o(i.main) refers to oled.o(i.OLED_Clear) for OLED_Clear
    main.o(i.main) refers to oled.o(i.OLED_ShowCHinese) for OLED_ShowCHinese
    main.o(i.main) refers to bsp_timbase.o(i.TIM6_Configuration) for TIM6_Configuration
    main.o(i.main) refers to bsp_timbase.o(i.TIM6_NVIC_Configuration) for TIM6_NVIC_Configuration
    main.o(i.main) refers to stm32f10x_rcc.o(i.RCC_APB1PeriphClockCmd) for RCC_APB1PeriphClockCmd
    main.o(i.main) refers to data_exchang.o(i.YAW_data_init) for YAW_data_init
    main.o(i.main) refers to irda.o(i.IrDa_Init) for IrDa_Init
    main.o(i.main) refers to init_set.o(i.set_data) for set_data
    main.o(i.main) refers to data_exchang.o(i.data_init) for data_init
    main.o(i.main) refers to swap_data.o(i.data_chang) for data_chang
    main.o(i.main) refers to stm32f10x_it.o(.data) for AGM_START
    stm32f10x_it.o(i.EXTI15_10_IRQHandler) refers to stm32f10x_exti.o(i.EXTI_GetITStatus) for EXTI_GetITStatus
    stm32f10x_it.o(i.EXTI15_10_IRQHandler) refers to stm32f10x_gpio.o(i.GPIO_ReadInputDataBit) for GPIO_ReadInputDataBit
    stm32f10x_it.o(i.EXTI15_10_IRQHandler) refers to irda.o(i.Get_Pulse_Time) for Get_Pulse_Time
    stm32f10x_it.o(i.EXTI15_10_IRQHandler) refers to stm32f10x_exti.o(i.EXTI_ClearITPendingBit) for EXTI_ClearITPendingBit
    stm32f10x_it.o(i.EXTI15_10_IRQHandler) refers to irda.o(.data) for frame_flag
    stm32f10x_it.o(i.EXTI15_10_IRQHandler) refers to stm32f10x_it.o(.data) for isr_cnt
    stm32f10x_it.o(i.EXTI1_IRQHandler) refers to stm32f10x_exti.o(i.EXTI_GetITStatus) for EXTI_GetITStatus
    stm32f10x_it.o(i.EXTI1_IRQHandler) refers to stm32f10x_gpio.o(i.GPIO_ReadInputDataBit) for GPIO_ReadInputDataBit
    stm32f10x_it.o(i.EXTI1_IRQHandler) refers to stm32f10x_tim.o(i.TIM_Cmd) for TIM_Cmd
    stm32f10x_it.o(i.EXTI1_IRQHandler) refers to stm32f10x_exti.o(i.EXTI_ClearITPendingBit) for EXTI_ClearITPendingBit
    stm32f10x_it.o(i.EXTI1_IRQHandler) refers to ultrasonicwave.o(.data) for Ultrasonic_OK
    stm32f10x_it.o(i.SysTick_Handler) refers to bsp_systick.o(i.TimingDelay_Decrement) for TimingDelay_Decrement
    stm32f10x_it.o(i.TIM6_IRQHandler) refers to stm32f10x_tim.o(i.TIM_GetITStatus) for TIM_GetITStatus
    stm32f10x_it.o(i.TIM6_IRQHandler) refers to nr24l01_reg.o(i.get_nrf_sta) for get_nrf_sta
    stm32f10x_it.o(i.TIM6_IRQHandler) refers to nr24l01_reg.o(i.nrf_read) for nrf_read
    stm32f10x_it.o(i.TIM6_IRQHandler) refers to nr24l01_reg.o(i.nrf_TxMod) for nrf_TxMod
    stm32f10x_it.o(i.TIM6_IRQHandler) refers to nr24l01_reg.o(i.nrf_trans) for nrf_trans
    stm32f10x_it.o(i.TIM6_IRQHandler) refers to pid_control.o(i.PWM_control) for PWM_control
    stm32f10x_it.o(i.TIM6_IRQHandler) refers to nr24l01_reg.o(i.nrf_RxMod) for nrf_RxMod
    stm32f10x_it.o(i.TIM6_IRQHandler) refers to stm32f10x_tim.o(i.TIM_ClearITPendingBit) for TIM_ClearITPendingBit
    stm32f10x_it.o(i.TIM6_IRQHandler) refers to stm32f10x_it.o(.data) for TIME_AGM
    stm32f10x_it.o(i.TIM6_IRQHandler) refers to main.o(.data) for time
    stm32f10x_it.o(i.TIM6_IRQHandler) refers to nr24l01_reg.o(.data) for nrf_sta
    gpio_config.o(i.SPI_DATA_Init) refers to stm32f10x_rcc.o(i.RCC_APB2PeriphClockCmd) for RCC_APB2PeriphClockCmd
    gpio_config.o(i.SPI_DATA_Init) refers to stm32f10x_gpio.o(i.GPIO_Init) for GPIO_Init
    gpio_config.o(i.SPI_DATA_Init) refers to stm32f10x_gpio.o(i.GPIO_SetBits) for GPIO_SetBits
    gpio_config.o(i.SPI_DATA_Init) refers to stm32f10x_spi.o(i.SPI_Init) for SPI_Init
    gpio_config.o(i.SPI_DATA_Init) refers to stm32f10x_spi.o(i.SPI_Cmd) for SPI_Cmd
    gpio_config.o(i.SPI_FLASH_ReadDeviceID) refers to gpio_config.o(i.SPI_FLASH_SendByte) for SPI_FLASH_SendByte
    gpio_config.o(i.SPI_FLASH_SendByte) refers to stm32f10x_spi.o(i.SPI_I2S_GetFlagStatus) for SPI_I2S_GetFlagStatus
    gpio_config.o(i.SPI_FLASH_SendByte) refers to stm32f10x_spi.o(i.SPI_I2S_SendData) for SPI_I2S_SendData
    gpio_config.o(i.SPI_FLASH_SendByte) refers to stm32f10x_spi.o(i.SPI_I2S_ReceiveData) for SPI_I2S_ReceiveData
    gpio_config.o(i.USART1_Config) refers to stm32f10x_rcc.o(i.RCC_APB2PeriphClockCmd) for RCC_APB2PeriphClockCmd
    gpio_config.o(i.USART1_Config) refers to stm32f10x_gpio.o(i.GPIO_Init) for GPIO_Init
    gpio_config.o(i.USART1_Config) refers to stm32f10x_usart.o(i.USART_Init) for USART_Init
    gpio_config.o(i.USART1_Config) refers to stm32f10x_usart.o(i.USART_Cmd) for USART_Cmd
    gpio_config.o(i.USART1_DMA_Config) refers to stm32f10x_rcc.o(i.RCC_AHBPeriphClockCmd) for RCC_AHBPeriphClockCmd
    gpio_config.o(i.USART1_DMA_Config) refers to stm32f10x_dma.o(i.DMA_Init) for DMA_Init
    gpio_config.o(i.USART1_DMA_Config) refers to stm32f10x_dma.o(i.DMA_Cmd) for DMA_Cmd
    gpio_config.o(i.USART1_DMA_Config) refers to gpio_config.o(.bss) for SendBuff
    gpio_config.o(i.USART3_Config) refers to stm32f10x_rcc.o(i.RCC_APB2PeriphClockCmd) for RCC_APB2PeriphClockCmd
    gpio_config.o(i.USART3_Config) refers to stm32f10x_rcc.o(i.RCC_APB1PeriphClockCmd) for RCC_APB1PeriphClockCmd
    gpio_config.o(i.USART3_Config) refers to stm32f10x_gpio.o(i.GPIO_PinRemapConfig) for GPIO_PinRemapConfig
    gpio_config.o(i.USART3_Config) refers to stm32f10x_gpio.o(i.GPIO_Init) for GPIO_Init
    gpio_config.o(i.USART3_Config) refers to stm32f10x_usart.o(i.USART_Init) for USART_Init
    gpio_config.o(i.USART3_Config) refers to stm32f10x_usart.o(i.USART_Cmd) for USART_Cmd
    gpio_config.o(i.fgetc) refers to stm32f10x_usart.o(i.USART_GetFlagStatus) for USART_GetFlagStatus
    gpio_config.o(i.fgetc) refers to stm32f10x_usart.o(i.USART_ReceiveData) for USART_ReceiveData
    gpio_config.o(i.fputc) refers to stm32f10x_usart.o(i.USART_SendData) for USART_SendData
    gpio_config.o(i.fputc) refers to stm32f10x_usart.o(i.USART_GetFlagStatus) for USART_GetFlagStatus
    gpio_config.o(i.send_USART1) refers to stm32f10x_usart.o(i.USART_SendData) for USART_SendData
    gpio_config.o(i.send_USART1) refers to stm32f10x_usart.o(i.USART_GetFlagStatus) for USART_GetFlagStatus
    gpio_config.o(i.send_byte_USART1) refers to stm32f10x_usart.o(i.USART_SendData) for USART_SendData
    gpio_config.o(i.send_byte_USART1) refers to stm32f10x_usart.o(i.USART_GetFlagStatus) for USART_GetFlagStatus
    nr24l01_reg.o(i.SPI_Read_Buf) refers to gpio_config.o(i.SPI_FLASH_SendByte) for SPI_FLASH_SendByte
    nr24l01_reg.o(i.SPI_Read_Reg) refers to gpio_config.o(i.SPI_FLASH_SendByte) for SPI_FLASH_SendByte
    nr24l01_reg.o(i.SPI_Write_Buf) refers to gpio_config.o(i.SPI_FLASH_SendByte) for SPI_FLASH_SendByte
    nr24l01_reg.o(i.SPI_Write_Reg) refers to gpio_config.o(i.SPI_FLASH_SendByte) for SPI_FLASH_SendByte
    nr24l01_reg.o(i.get_nrf_sta) refers to nr24l01_reg.o(i.SPI_Read_Reg) for SPI_Read_Reg
    nr24l01_reg.o(i.get_nrf_sta) refers to nr24l01_reg.o(i.SPI_Write_Reg) for SPI_Write_Reg
    nr24l01_reg.o(i.get_nrf_sta) refers to nr24l01_reg.o(.data) for nrf_sta
    nr24l01_reg.o(i.init_NRF24L01) refers to bsp_systick.o(i.Delay_us) for Delay_us
    nr24l01_reg.o(i.init_NRF24L01) refers to nr24l01_reg.o(i.SPI_Write_Buf) for SPI_Write_Buf
    nr24l01_reg.o(i.init_NRF24L01) refers to nr24l01_reg.o(i.SPI_Write_Reg) for SPI_Write_Reg
    nr24l01_reg.o(i.init_NRF24L01) refers to nr24l01_reg.o(.data) for TX_ADDRESS
    nr24l01_reg.o(i.nrf_RxMod) refers to nr24l01_reg.o(i.SPI_Write_Reg) for SPI_Write_Reg
    nr24l01_reg.o(i.nrf_TxMod) refers to nr24l01_reg.o(i.SPI_Write_Reg) for SPI_Write_Reg
    nr24l01_reg.o(i.nrf_load_float) refers to cfrcmple.o(.text) for __aeabi_cfrcmple
    nr24l01_reg.o(i.nrf_load_float) refers to ffixui.o(.text) for __aeabi_f2uiz
    nr24l01_reg.o(i.nrf_load_float) refers to ffixi.o(.text) for __aeabi_f2iz
    nr24l01_reg.o(i.nrf_load_float) refers to fflti.o(.text) for __aeabi_i2f
    nr24l01_reg.o(i.nrf_load_float) refers to fadd.o(.text) for __aeabi_frsub
    nr24l01_reg.o(i.nrf_load_float) refers to fmul.o(.text) for __aeabi_fmul
    nr24l01_reg.o(i.nrf_load_float) refers to cfcmple.o(.text) for __aeabi_cfcmple
    nr24l01_reg.o(i.nrf_load_float) refers to nr24l01_reg.o(.data) for TxBuf
    nr24l01_reg.o(i.nrf_load_sfloat) refers to cfrcmple.o(.text) for __aeabi_cfrcmple
    nr24l01_reg.o(i.nrf_load_sfloat) refers to ffixui.o(.text) for __aeabi_f2uiz
    nr24l01_reg.o(i.nrf_load_sfloat) refers to ffixi.o(.text) for __aeabi_f2iz
    nr24l01_reg.o(i.nrf_load_sfloat) refers to fflti.o(.text) for __aeabi_i2f
    nr24l01_reg.o(i.nrf_load_sfloat) refers to fadd.o(.text) for __aeabi_frsub
    nr24l01_reg.o(i.nrf_load_sfloat) refers to fmul.o(.text) for __aeabi_fmul
    nr24l01_reg.o(i.nrf_load_sfloat) refers to cfcmple.o(.text) for __aeabi_cfcmple
    nr24l01_reg.o(i.nrf_load_sfloat) refers to nr24l01_reg.o(.data) for TxBuf
    nr24l01_reg.o(i.nrf_read) refers to nr24l01_reg.o(i.SPI_Read_Buf) for SPI_Read_Buf
    nr24l01_reg.o(i.nrf_read) refers to nr24l01_reg.o(i.SPI_Write_Reg) for SPI_Write_Reg
    nr24l01_reg.o(i.nrf_read) refers to nr24l01_reg.o(.data) for nrf_sta
    nr24l01_reg.o(i.nrf_trans) refers to nr24l01_reg.o(i.SPI_Write_Reg) for SPI_Write_Reg
    nr24l01_reg.o(i.nrf_trans) refers to nr24l01_reg.o(i.SPI_Write_Buf) for SPI_Write_Buf
    nr24l01_reg.o(i.nrf_trans) refers to nr24l01_reg.o(.data) for TX_ADDRESS
    nr24l01_reg.o(i.nrf_unload_float) refers to fflti.o(.text) for __aeabi_i2f
    nr24l01_reg.o(i.nrf_unload_float) refers to f2d.o(.text) for __aeabi_f2d
    nr24l01_reg.o(i.nrf_unload_float) refers to ddiv.o(.text) for __aeabi_ddiv
    nr24l01_reg.o(i.nrf_unload_float) refers to dflti.o(.text) for __aeabi_i2d
    nr24l01_reg.o(i.nrf_unload_float) refers to dadd.o(.text) for __aeabi_dadd
    nr24l01_reg.o(i.nrf_unload_float) refers to d2f.o(.text) for __aeabi_d2f
    nr24l01_reg.o(i.nrf_unload_float) refers to nr24l01_reg.o(.data) for RxBuf
    nr24l01_reg.o(i.nrf_unload_sfloat) refers to ffltui.o(.text) for __aeabi_ui2f
    nr24l01_reg.o(i.nrf_unload_sfloat) refers to fdiv.o(.text) for __aeabi_fdiv
    nr24l01_reg.o(i.nrf_unload_sfloat) refers to fadd.o(.text) for __aeabi_fadd
    nr24l01_reg.o(i.nrf_unload_sfloat) refers to nr24l01_reg.o(.data) for RxBuf
    bsp_systick.o(i.Delay_ms) refers to bsp_systick.o(i.Delay_us) for Delay_us
    bsp_systick.o(i.Delay_us) refers to bsp_systick.o(.data) for TimingDelay
    bsp_systick.o(i.SysTick_Init) refers to system_stm32f10x.o(.data) for SystemCoreClock
    bsp_systick.o(i.TimingDelay_Decrement) refers to bsp_systick.o(.data) for TimingDelay
    pwm_config.o(i.TIM3_GPIO_Config) refers to stm32f10x_rcc.o(i.RCC_APB1PeriphClockCmd) for RCC_APB1PeriphClockCmd
    pwm_config.o(i.TIM3_GPIO_Config) refers to stm32f10x_rcc.o(i.RCC_APB2PeriphClockCmd) for RCC_APB2PeriphClockCmd
    pwm_config.o(i.TIM3_GPIO_Config) refers to stm32f10x_gpio.o(i.GPIO_PinRemapConfig) for GPIO_PinRemapConfig
    pwm_config.o(i.TIM3_GPIO_Config) refers to stm32f10x_gpio.o(i.GPIO_Init) for GPIO_Init
    pwm_config.o(i.TIM3_Mode_PWM1_Config) refers to stm32f10x_tim.o(i.TIM_TimeBaseInit) for TIM_TimeBaseInit
    pwm_config.o(i.TIM3_Mode_PWM1_Config) refers to stm32f10x_tim.o(i.TIM_OC1Init) for TIM_OC1Init
    pwm_config.o(i.TIM3_Mode_PWM1_Config) refers to stm32f10x_tim.o(i.TIM_OC1PreloadConfig) for TIM_OC1PreloadConfig
    pwm_config.o(i.TIM3_Mode_PWM1_Config) refers to stm32f10x_tim.o(i.TIM_ARRPreloadConfig) for TIM_ARRPreloadConfig
    pwm_config.o(i.TIM3_Mode_PWM1_Config) refers to stm32f10x_tim.o(i.TIM_Cmd) for TIM_Cmd
    pwm_config.o(i.TIM3_Mode_PWM2_Config) refers to stm32f10x_tim.o(i.TIM_TimeBaseInit) for TIM_TimeBaseInit
    pwm_config.o(i.TIM3_Mode_PWM2_Config) refers to stm32f10x_tim.o(i.TIM_OC2Init) for TIM_OC2Init
    pwm_config.o(i.TIM3_Mode_PWM2_Config) refers to stm32f10x_tim.o(i.TIM_OC2PreloadConfig) for TIM_OC2PreloadConfig
    pwm_config.o(i.TIM3_Mode_PWM2_Config) refers to stm32f10x_tim.o(i.TIM_ARRPreloadConfig) for TIM_ARRPreloadConfig
    pwm_config.o(i.TIM3_Mode_PWM2_Config) refers to stm32f10x_tim.o(i.TIM_Cmd) for TIM_Cmd
    pwm_config.o(i.TIM3_Mode_PWM3_Config) refers to stm32f10x_tim.o(i.TIM_TimeBaseInit) for TIM_TimeBaseInit
    pwm_config.o(i.TIM3_Mode_PWM3_Config) refers to stm32f10x_tim.o(i.TIM_OC3Init) for TIM_OC3Init
    pwm_config.o(i.TIM3_Mode_PWM3_Config) refers to stm32f10x_tim.o(i.TIM_OC3PreloadConfig) for TIM_OC3PreloadConfig
    pwm_config.o(i.TIM3_Mode_PWM3_Config) refers to stm32f10x_tim.o(i.TIM_ARRPreloadConfig) for TIM_ARRPreloadConfig
    pwm_config.o(i.TIM3_Mode_PWM3_Config) refers to stm32f10x_tim.o(i.TIM_Cmd) for TIM_Cmd
    pwm_config.o(i.TIM3_Mode_PWM4_Config) refers to stm32f10x_tim.o(i.TIM_TimeBaseInit) for TIM_TimeBaseInit
    pwm_config.o(i.TIM3_Mode_PWM4_Config) refers to stm32f10x_tim.o(i.TIM_OC4Init) for TIM_OC4Init
    pwm_config.o(i.TIM3_Mode_PWM4_Config) refers to stm32f10x_tim.o(i.TIM_OC4PreloadConfig) for TIM_OC4PreloadConfig
    pwm_config.o(i.TIM3_Mode_PWM4_Config) refers to stm32f10x_tim.o(i.TIM_ARRPreloadConfig) for TIM_ARRPreloadConfig
    pwm_config.o(i.TIM3_Mode_PWM4_Config) refers to stm32f10x_tim.o(i.TIM_Cmd) for TIM_Cmd
    pwm_config.o(i.TIM3_init) refers to pwm_config.o(i.TIM3_GPIO_Config) for TIM3_GPIO_Config
    pwm_config.o(i.TIM3_init) refers to pwm_config.o(i.TIM3_Mode_PWM1_Config) for TIM3_Mode_PWM1_Config
    pwm_config.o(i.TIM3_init) refers to pwm_config.o(i.TIM3_Mode_PWM2_Config) for TIM3_Mode_PWM2_Config
    pwm_config.o(i.TIM3_init) refers to pwm_config.o(i.TIM3_Mode_PWM3_Config) for TIM3_Mode_PWM3_Config
    pwm_config.o(i.TIM3_init) refers to pwm_config.o(i.TIM3_Mode_PWM4_Config) for TIM3_Mode_PWM4_Config
    bsp_timbase.o(i.TIM6_Configuration) refers to stm32f10x_rcc.o(i.RCC_APB1PeriphClockCmd) for RCC_APB1PeriphClockCmd
    bsp_timbase.o(i.TIM6_Configuration) refers to stm32f10x_tim.o(i.TIM_TimeBaseInit) for TIM_TimeBaseInit
    bsp_timbase.o(i.TIM6_Configuration) refers to stm32f10x_tim.o(i.TIM_ClearFlag) for TIM_ClearFlag
    bsp_timbase.o(i.TIM6_Configuration) refers to stm32f10x_tim.o(i.TIM_ITConfig) for TIM_ITConfig
    bsp_timbase.o(i.TIM6_Configuration) refers to stm32f10x_tim.o(i.TIM_Cmd) for TIM_Cmd
    bsp_timbase.o(i.TIM6_NVIC_Configuration) refers to misc.o(i.NVIC_PriorityGroupConfig) for NVIC_PriorityGroupConfig
    bsp_timbase.o(i.TIM6_NVIC_Configuration) refers to misc.o(i.NVIC_Init) for NVIC_Init
    bsp_exti.o(i.EXTI_PB1_Config) refers to stm32f10x_rcc.o(i.RCC_APB2PeriphClockCmd) for RCC_APB2PeriphClockCmd
    bsp_exti.o(i.EXTI_PB1_Config) refers to bsp_exti.o(i.PB1_NVIC_Configuration) for PB1_NVIC_Configuration
    bsp_exti.o(i.EXTI_PB1_Config) refers to stm32f10x_gpio.o(i.GPIO_Init) for GPIO_Init
    bsp_exti.o(i.EXTI_PB1_Config) refers to stm32f10x_gpio.o(i.GPIO_EXTILineConfig) for GPIO_EXTILineConfig
    bsp_exti.o(i.EXTI_PB1_Config) refers to stm32f10x_exti.o(i.EXTI_Init) for EXTI_Init
    bsp_exti.o(i.PB1_NVIC_Configuration) refers to misc.o(i.NVIC_PriorityGroupConfig) for NVIC_PriorityGroupConfig
    bsp_exti.o(i.PB1_NVIC_Configuration) refers to misc.o(i.NVIC_Init) for NVIC_Init
    oled.o(i.OLED_Clear) refers to oled.o(i.OLED_WR_Byte) for OLED_WR_Byte
    oled.o(i.OLED_Display_Off) refers to oled.o(i.OLED_WR_Byte) for OLED_WR_Byte
    oled.o(i.OLED_Display_On) refers to oled.o(i.OLED_WR_Byte) for OLED_WR_Byte
    oled.o(i.OLED_DrawBMP) refers to oled.o(i.OLED_Set_Pos) for OLED_Set_Pos
    oled.o(i.OLED_DrawBMP) refers to oled.o(i.OLED_WR_Byte) for OLED_WR_Byte
    oled.o(i.OLED_Init) refers to stm32f10x_rcc.o(i.RCC_APB2PeriphClockCmd) for RCC_APB2PeriphClockCmd
    oled.o(i.OLED_Init) refers to stm32f10x_gpio.o(i.GPIO_Init) for GPIO_Init
    oled.o(i.OLED_Init) refers to stm32f10x_gpio.o(i.GPIO_SetBits) for GPIO_SetBits
    oled.o(i.OLED_Init) refers to stm32f10x_gpio.o(i.GPIO_ResetBits) for GPIO_ResetBits
    oled.o(i.OLED_Init) refers to oled.o(i.OLED_WR_Byte) for OLED_WR_Byte
    oled.o(i.OLED_Init) refers to oled.o(i.OLED_Clear) for OLED_Clear
    oled.o(i.OLED_Init) refers to oled.o(i.OLED_Set_Pos) for OLED_Set_Pos
    oled.o(i.OLED_Init) refers to oled.o(i.OLED_ShowString) for OLED_ShowString
    oled.o(i.OLED_Set_Pos) refers to oled.o(i.OLED_WR_Byte) for OLED_WR_Byte
    oled.o(i.OLED_ShowCHinese) refers to oled.o(i.OLED_Set_Pos) for OLED_Set_Pos
    oled.o(i.OLED_ShowCHinese) refers to oled.o(i.OLED_WR_Byte) for OLED_WR_Byte
    oled.o(i.OLED_ShowCHinese) refers to oled.o(.data) for Hzk
    oled.o(i.OLED_ShowCHinese_inverse) refers to oled.o(i.OLED_Set_Pos) for OLED_Set_Pos
    oled.o(i.OLED_ShowCHinese_inverse) refers to oled.o(i.OLED_WR_Byte) for OLED_WR_Byte
    oled.o(i.OLED_ShowCHinese_inverse) refers to oled.o(.data) for Hzk
    oled.o(i.OLED_ShowChar) refers to oled.o(i.OLED_Set_Pos) for OLED_Set_Pos
    oled.o(i.OLED_ShowChar) refers to oled.o(i.OLED_WR_Byte) for OLED_WR_Byte
    oled.o(i.OLED_ShowChar) refers to oled.o(.constdata) for F8X16
    oled.o(i.OLED_ShowNum) refers to oled.o(i.oled_pow) for oled_pow
    oled.o(i.OLED_ShowNum) refers to oled.o(i.OLED_ShowChar) for OLED_ShowChar
    oled.o(i.OLED_ShowString) refers to oled.o(i.OLED_ShowChar) for OLED_ShowChar
    oled.o(i.OLED_WR_Byte) refers to stm32f10x_gpio.o(i.GPIO_SetBits) for GPIO_SetBits
    oled.o(i.OLED_WR_Byte) refers to stm32f10x_gpio.o(i.GPIO_ResetBits) for GPIO_ResetBits
    bsp_i2c.o(i.I2C_AK_BufferRead) refers to stm32f10x_i2c.o(i.I2C_GetFlagStatus) for I2C_GetFlagStatus
    bsp_i2c.o(i.I2C_AK_BufferRead) refers to stm32f10x_i2c.o(i.I2C_GenerateSTART) for I2C_GenerateSTART
    bsp_i2c.o(i.I2C_AK_BufferRead) refers to stm32f10x_i2c.o(i.I2C_CheckEvent) for I2C_CheckEvent
    bsp_i2c.o(i.I2C_AK_BufferRead) refers to stm32f10x_i2c.o(i.I2C_Send7bitAddress) for I2C_Send7bitAddress
    bsp_i2c.o(i.I2C_AK_BufferRead) refers to stm32f10x_i2c.o(i.I2C_Cmd) for I2C_Cmd
    bsp_i2c.o(i.I2C_AK_BufferRead) refers to stm32f10x_i2c.o(i.I2C_SendData) for I2C_SendData
    bsp_i2c.o(i.I2C_AK_BufferRead) refers to stm32f10x_i2c.o(i.I2C_AcknowledgeConfig) for I2C_AcknowledgeConfig
    bsp_i2c.o(i.I2C_AK_BufferRead) refers to stm32f10x_i2c.o(i.I2C_GenerateSTOP) for I2C_GenerateSTOP
    bsp_i2c.o(i.I2C_AK_BufferRead) refers to stm32f10x_i2c.o(i.I2C_ReceiveData) for I2C_ReceiveData
    bsp_i2c.o(i.I2C_AK_BufferWrite) refers to bsp_i2c.o(i.I2C_AK_PageWrite) for I2C_AK_PageWrite
    bsp_i2c.o(i.I2C_AK_BufferWrite) refers to bsp_i2c.o(i.I2C_AK_WaitAkStandbyState) for I2C_AK_WaitAkStandbyState
    bsp_i2c.o(i.I2C_AK_ByteWrite) refers to stm32f10x_i2c.o(i.I2C_GenerateSTART) for I2C_GenerateSTART
    bsp_i2c.o(i.I2C_AK_ByteWrite) refers to stm32f10x_i2c.o(i.I2C_CheckEvent) for I2C_CheckEvent
    bsp_i2c.o(i.I2C_AK_ByteWrite) refers to stm32f10x_i2c.o(i.I2C_Send7bitAddress) for I2C_Send7bitAddress
    bsp_i2c.o(i.I2C_AK_ByteWrite) refers to stm32f10x_i2c.o(i.I2C_SendData) for I2C_SendData
    bsp_i2c.o(i.I2C_AK_ByteWrite) refers to stm32f10x_i2c.o(i.I2C_GenerateSTOP) for I2C_GenerateSTOP
    bsp_i2c.o(i.I2C_AK_Init) refers to bsp_i2c.o(i.I2C_GPIO_Config) for I2C_GPIO_Config
    bsp_i2c.o(i.I2C_AK_Init) refers to bsp_i2c.o(i.I2C_Mode_Configu) for I2C_Mode_Configu
    bsp_i2c.o(i.I2C_AK_PageWrite) refers to stm32f10x_i2c.o(i.I2C_GetFlagStatus) for I2C_GetFlagStatus
    bsp_i2c.o(i.I2C_AK_PageWrite) refers to stm32f10x_i2c.o(i.I2C_GenerateSTART) for I2C_GenerateSTART
    bsp_i2c.o(i.I2C_AK_PageWrite) refers to stm32f10x_i2c.o(i.I2C_CheckEvent) for I2C_CheckEvent
    bsp_i2c.o(i.I2C_AK_PageWrite) refers to stm32f10x_i2c.o(i.I2C_Send7bitAddress) for I2C_Send7bitAddress
    bsp_i2c.o(i.I2C_AK_PageWrite) refers to stm32f10x_i2c.o(i.I2C_SendData) for I2C_SendData
    bsp_i2c.o(i.I2C_AK_PageWrite) refers to stm32f10x_i2c.o(i.I2C_GenerateSTOP) for I2C_GenerateSTOP
    bsp_i2c.o(i.I2C_AK_WaitAkStandbyState) refers to stm32f10x_i2c.o(i.I2C_GenerateSTART) for I2C_GenerateSTART
    bsp_i2c.o(i.I2C_AK_WaitAkStandbyState) refers to stm32f10x_i2c.o(i.I2C_ReadRegister) for I2C_ReadRegister
    bsp_i2c.o(i.I2C_AK_WaitAkStandbyState) refers to stm32f10x_i2c.o(i.I2C_Send7bitAddress) for I2C_Send7bitAddress
    bsp_i2c.o(i.I2C_AK_WaitAkStandbyState) refers to stm32f10x_i2c.o(i.I2C_ClearFlag) for I2C_ClearFlag
    bsp_i2c.o(i.I2C_AK_WaitAkStandbyState) refers to stm32f10x_i2c.o(i.I2C_GenerateSTOP) for I2C_GenerateSTOP
    bsp_i2c.o(i.I2C_EE_BufferRead) refers to stm32f10x_i2c.o(i.I2C_GetFlagStatus) for I2C_GetFlagStatus
    bsp_i2c.o(i.I2C_EE_BufferRead) refers to stm32f10x_i2c.o(i.I2C_GenerateSTART) for I2C_GenerateSTART
    bsp_i2c.o(i.I2C_EE_BufferRead) refers to stm32f10x_i2c.o(i.I2C_CheckEvent) for I2C_CheckEvent
    bsp_i2c.o(i.I2C_EE_BufferRead) refers to stm32f10x_i2c.o(i.I2C_Send7bitAddress) for I2C_Send7bitAddress
    bsp_i2c.o(i.I2C_EE_BufferRead) refers to stm32f10x_i2c.o(i.I2C_Cmd) for I2C_Cmd
    bsp_i2c.o(i.I2C_EE_BufferRead) refers to stm32f10x_i2c.o(i.I2C_SendData) for I2C_SendData
    bsp_i2c.o(i.I2C_EE_BufferRead) refers to stm32f10x_i2c.o(i.I2C_AcknowledgeConfig) for I2C_AcknowledgeConfig
    bsp_i2c.o(i.I2C_EE_BufferRead) refers to stm32f10x_i2c.o(i.I2C_GenerateSTOP) for I2C_GenerateSTOP
    bsp_i2c.o(i.I2C_EE_BufferRead) refers to stm32f10x_i2c.o(i.I2C_ReceiveData) for I2C_ReceiveData
    bsp_i2c.o(i.I2C_EE_BufferWrite) refers to bsp_i2c.o(i.I2C_EE_PageWrite) for I2C_EE_PageWrite
    bsp_i2c.o(i.I2C_EE_BufferWrite) refers to bsp_i2c.o(i.I2C_EE_WaitEepromStandbyState) for I2C_EE_WaitEepromStandbyState
    bsp_i2c.o(i.I2C_EE_ByteWrite) refers to stm32f10x_i2c.o(i.I2C_GenerateSTART) for I2C_GenerateSTART
    bsp_i2c.o(i.I2C_EE_ByteWrite) refers to stm32f10x_i2c.o(i.I2C_CheckEvent) for I2C_CheckEvent
    bsp_i2c.o(i.I2C_EE_ByteWrite) refers to stm32f10x_i2c.o(i.I2C_Send7bitAddress) for I2C_Send7bitAddress
    bsp_i2c.o(i.I2C_EE_ByteWrite) refers to stm32f10x_i2c.o(i.I2C_SendData) for I2C_SendData
    bsp_i2c.o(i.I2C_EE_ByteWrite) refers to stm32f10x_i2c.o(i.I2C_GenerateSTOP) for I2C_GenerateSTOP
    bsp_i2c.o(i.I2C_EE_Init) refers to bsp_i2c.o(i.I2C_GPIO_Config) for I2C_GPIO_Config
    bsp_i2c.o(i.I2C_EE_Init) refers to bsp_i2c.o(i.I2C_Mode_Configu) for I2C_Mode_Configu
    bsp_i2c.o(i.I2C_EE_PageWrite) refers to stm32f10x_i2c.o(i.I2C_GetFlagStatus) for I2C_GetFlagStatus
    bsp_i2c.o(i.I2C_EE_PageWrite) refers to stm32f10x_i2c.o(i.I2C_GenerateSTART) for I2C_GenerateSTART
    bsp_i2c.o(i.I2C_EE_PageWrite) refers to stm32f10x_i2c.o(i.I2C_CheckEvent) for I2C_CheckEvent
    bsp_i2c.o(i.I2C_EE_PageWrite) refers to stm32f10x_i2c.o(i.I2C_Send7bitAddress) for I2C_Send7bitAddress
    bsp_i2c.o(i.I2C_EE_PageWrite) refers to stm32f10x_i2c.o(i.I2C_SendData) for I2C_SendData
    bsp_i2c.o(i.I2C_EE_PageWrite) refers to stm32f10x_i2c.o(i.I2C_GenerateSTOP) for I2C_GenerateSTOP
    bsp_i2c.o(i.I2C_EE_WaitEepromStandbyState) refers to stm32f10x_i2c.o(i.I2C_GenerateSTART) for I2C_GenerateSTART
    bsp_i2c.o(i.I2C_EE_WaitEepromStandbyState) refers to stm32f10x_i2c.o(i.I2C_ReadRegister) for I2C_ReadRegister
    bsp_i2c.o(i.I2C_EE_WaitEepromStandbyState) refers to stm32f10x_i2c.o(i.I2C_Send7bitAddress) for I2C_Send7bitAddress
    bsp_i2c.o(i.I2C_EE_WaitEepromStandbyState) refers to stm32f10x_i2c.o(i.I2C_ClearFlag) for I2C_ClearFlag
    bsp_i2c.o(i.I2C_EE_WaitEepromStandbyState) refers to stm32f10x_i2c.o(i.I2C_GenerateSTOP) for I2C_GenerateSTOP
    bsp_i2c.o(i.I2C_GPIO_Config) refers to stm32f10x_rcc.o(i.RCC_APB2PeriphClockCmd) for RCC_APB2PeriphClockCmd
    bsp_i2c.o(i.I2C_GPIO_Config) refers to stm32f10x_rcc.o(i.RCC_APB1PeriphClockCmd) for RCC_APB1PeriphClockCmd
    bsp_i2c.o(i.I2C_GPIO_Config) refers to stm32f10x_gpio.o(i.GPIO_Init) for GPIO_Init
    bsp_i2c.o(i.I2C_Mode_Configu) refers to stm32f10x_i2c.o(i.I2C_Init) for I2C_Init
    bsp_i2c.o(i.I2C_Mode_Configu) refers to stm32f10x_i2c.o(i.I2C_Cmd) for I2C_Cmd
    i2c.o(i.I2C_RecvACK) refers to bsp_systick.o(i.Delay_us) for Delay_us
    i2c.o(i.I2C_RecvByte) refers to bsp_systick.o(i.Delay_us) for Delay_us
    i2c.o(i.I2C_SDA_IN) refers to stm32f10x_gpio.o(i.GPIO_Init) for GPIO_Init
    i2c.o(i.I2C_SDA_OUT) refers to stm32f10x_gpio.o(i.GPIO_Init) for GPIO_Init
    i2c.o(i.I2C_SendACK) refers to i2c.o(i.Delay_600ns) for Delay_600ns
    i2c.o(i.I2C_SendByte) refers to i2c.o(i.Delay_600ns) for Delay_600ns
    i2c.o(i.I2C_SendByte) refers to bsp_systick.o(i.Delay_us) for Delay_us
    i2c.o(i.I2C_Start) refers to i2c.o(i.Delay_600ns) for Delay_600ns
    i2c.o(i.I2C_Stop) refers to i2c.o(i.Delay_600ns) for Delay_600ns
    i2c.o(i.I2C_Stop) refers to bsp_systick.o(i.Delay_us) for Delay_us
    i2c.o(i.IIC_ReadData) refers to i2c.o(i.I2C_Start) for I2C_Start
    i2c.o(i.IIC_ReadData) refers to i2c.o(i.I2C_SendByte) for I2C_SendByte
    i2c.o(i.IIC_ReadData) refers to i2c.o(i.I2C_RecvByte) for I2C_RecvByte
    i2c.o(i.IIC_ReadData) refers to i2c.o(i.I2C_SendACK) for I2C_SendACK
    i2c.o(i.IIC_ReadData) refers to i2c.o(i.I2C_Stop) for I2C_Stop
    i2c.o(i.IIC_add_WriteI2C) refers to i2c.o(i.I2C_Start) for I2C_Start
    i2c.o(i.IIC_add_WriteI2C) refers to i2c.o(i.I2C_SendByte) for I2C_SendByte
    i2c.o(i.IIC_add_WriteI2C) refers to i2c.o(i.I2C_Stop) for I2C_Stop
    i2c.o(i.Single_ReadI2C) refers to i2c.o(i.I2C_Start) for I2C_Start
    i2c.o(i.Single_ReadI2C) refers to i2c.o(i.I2C_SendByte) for I2C_SendByte
    i2c.o(i.Single_ReadI2C) refers to i2c.o(i.I2C_RecvByte) for I2C_RecvByte
    i2c.o(i.Single_ReadI2C) refers to i2c.o(i.I2C_SendACK) for I2C_SendACK
    i2c.o(i.Single_ReadI2C) refers to i2c.o(i.I2C_Stop) for I2C_Stop
    i2c.o(i.Single_WriteI2C) refers to i2c.o(i.I2C_Start) for I2C_Start
    i2c.o(i.Single_WriteI2C) refers to i2c.o(i.I2C_SendByte) for I2C_SendByte
    i2c.o(i.Single_WriteI2C) refers to i2c.o(i.I2C_Stop) for I2C_Stop
    i2c.o(i.Single_add_ReadI2C) refers to i2c.o(i.I2C_Start) for I2C_Start
    i2c.o(i.Single_add_ReadI2C) refers to i2c.o(i.I2C_SendByte) for I2C_SendByte
    i2c.o(i.Single_add_ReadI2C) refers to i2c.o(i.I2C_RecvByte) for I2C_RecvByte
    i2c.o(i.Single_add_ReadI2C) refers to i2c.o(i.I2C_SendACK) for I2C_SendACK
    i2c.o(i.Single_add_ReadI2C) refers to i2c.o(i.I2C_Stop) for I2C_Stop
    i2c.o(i.gpio_i2c) refers to stm32f10x_rcc.o(i.RCC_APB2PeriphClockCmd) for RCC_APB2PeriphClockCmd
    i2c.o(i.gpio_i2c) refers to stm32f10x_gpio.o(i.GPIO_Init) for GPIO_Init
    bmp_280.o(i.BMP280_GetPressure) refers to i2c.o(i.IIC_ReadData) for IIC_ReadData
    bmp_280.o(i.BMP280_GetPressure) refers to dflti.o(.text) for __aeabi_i2d
    bmp_280.o(i.BMP280_GetPressure) refers to ddiv.o(.text) for __aeabi_ddiv
    bmp_280.o(i.BMP280_GetPressure) refers to dadd.o(.text) for __aeabi_dsub
    bmp_280.o(i.BMP280_GetPressure) refers to dfixi.o(.text) for __aeabi_d2iz
    bmp_280.o(i.BMP280_GetPressure) refers to dmul.o(.text) for __aeabi_dmul
    bmp_280.o(i.BMP280_GetPressure) refers to dfltui.o(.text) for __aeabi_ui2d
    bmp_280.o(i.BMP280_GetPressure) refers to bmp_280.o(.data) for press_sb
    bmp_280.o(i.BMP280_GetTemperature) refers to i2c.o(i.IIC_ReadData) for IIC_ReadData
    bmp_280.o(i.BMP280_GetTemperature) refers to dflti.o(.text) for __aeabi_i2d
    bmp_280.o(i.BMP280_GetTemperature) refers to dfltui.o(.text) for __aeabi_ui2d
    bmp_280.o(i.BMP280_GetTemperature) refers to ddiv.o(.text) for __aeabi_ddiv
    bmp_280.o(i.BMP280_GetTemperature) refers to dadd.o(.text) for __aeabi_dsub
    bmp_280.o(i.BMP280_GetTemperature) refers to dmul.o(.text) for __aeabi_dmul
    bmp_280.o(i.BMP280_GetTemperature) refers to dfixi.o(.text) for __aeabi_d2iz
    bmp_280.o(i.BMP280_GetTemperature) refers to bmp_280.o(.data) for temp_sb
    bmp_280.o(i.BMP280_I2C1WriteByte) refers to stm32f10x_i2c.o(i.I2C_GenerateSTART) for I2C_GenerateSTART
    bmp_280.o(i.BMP280_I2C1WriteByte) refers to stm32f10x_i2c.o(i.I2C_CheckEvent) for I2C_CheckEvent
    bmp_280.o(i.BMP280_I2C1WriteByte) refers to stm32f10x_i2c.o(i.I2C_Send7bitAddress) for I2C_Send7bitAddress
    bmp_280.o(i.BMP280_I2C1WriteByte) refers to stm32f10x_i2c.o(i.I2C_SendData) for I2C_SendData
    bmp_280.o(i.BMP280_I2C1WriteByte) refers to stm32f10x_i2c.o(i.I2C_GenerateSTOP) for I2C_GenerateSTOP
    bmp_280.o(i.BMP280_I2C2ReadData) refers to stm32f10x_i2c.o(i.I2C_GetFlagStatus) for I2C_GetFlagStatus
    bmp_280.o(i.BMP280_I2C2ReadData) refers to stm32f10x_i2c.o(i.I2C_GenerateSTART) for I2C_GenerateSTART
    bmp_280.o(i.BMP280_I2C2ReadData) refers to stm32f10x_i2c.o(i.I2C_CheckEvent) for I2C_CheckEvent
    bmp_280.o(i.BMP280_I2C2ReadData) refers to stm32f10x_i2c.o(i.I2C_Send7bitAddress) for I2C_Send7bitAddress
    bmp_280.o(i.BMP280_I2C2ReadData) refers to stm32f10x_i2c.o(i.I2C_Cmd) for I2C_Cmd
    bmp_280.o(i.BMP280_I2C2ReadData) refers to stm32f10x_i2c.o(i.I2C_SendData) for I2C_SendData
    bmp_280.o(i.BMP280_I2C2ReadData) refers to stm32f10x_i2c.o(i.I2C_AcknowledgeConfig) for I2C_AcknowledgeConfig
    bmp_280.o(i.BMP280_I2C2ReadData) refers to stm32f10x_i2c.o(i.I2C_GenerateSTOP) for I2C_GenerateSTOP
    bmp_280.o(i.BMP280_I2C2ReadData) refers to stm32f10x_i2c.o(i.I2C_ReceiveData) for I2C_ReceiveData
    bmp_280.o(i.BMP280_Init) refers to i2c.o(i.IIC_add_WriteI2C) for IIC_add_WriteI2C
    mpu6050.o(i.MPU6050ReadAcc) refers to i2c.o(i.IIC_ReadData) for IIC_ReadData
    mpu6050.o(i.MPU6050ReadGyro) refers to i2c.o(i.IIC_ReadData) for IIC_ReadData
    mpu6050.o(i.MPU6050ReadID) refers to mpu6050.o(i.PMU6050_ReadData) for PMU6050_ReadData
    mpu6050.o(i.MPU6050ReadID) refers to printfa.o(i.__0printf) for __2printf
    mpu6050.o(i.MPU6050ReadTemp) refers to mpu6050.o(i.PMU6050_ReadData) for PMU6050_ReadData
    mpu6050.o(i.MPU6050Read_all) refers to i2c.o(i.IIC_ReadData) for IIC_ReadData
    mpu6050.o(i.MPU6050_Init) refers to bsp_systick.o(i.Delay_us) for Delay_us
    mpu6050.o(i.MPU6050_Init) refers to i2c.o(i.IIC_add_WriteI2C) for IIC_add_WriteI2C
    mpu6050.o(i.MPU6050_ReturnTemp) refers to i2c.o(i.IIC_ReadData) for IIC_ReadData
    mpu6050.o(i.MPU6050_ReturnTemp) refers to dflti.o(.text) for __aeabi_i2d
    mpu6050.o(i.MPU6050_ReturnTemp) refers to ddiv.o(.text) for __aeabi_ddiv
    mpu6050.o(i.MPU6050_ReturnTemp) refers to dfixi.o(.text) for __aeabi_d2iz
    mpu6050.o(i.MPU9250ReadMag) refers to i2c.o(i.IIC_ReadData) for IIC_ReadData
    mpu6050.o(i.MPU9250ReadMag) refers to i2c.o(i.IIC_add_WriteI2C) for IIC_add_WriteI2C
    mpu6050.o(i.PMU6050_ReadData) refers to bsp_i2c.o(i.I2C_EE_BufferRead) for I2C_EE_BufferRead
    mpu6050.o(i.PMU6050_WriteReg) refers to bsp_i2c.o(i.I2C_EE_ByteWrite) for I2C_EE_ByteWrite
    mpu6050.o(i.PMU9250_ReadData) refers to bsp_i2c.o(i.I2C_AK_BufferRead) for I2C_AK_BufferRead
    mpu6050.o(i.PMU9250_WriteReg) refers to bsp_i2c.o(i.I2C_AK_ByteWrite) for I2C_AK_ByteWrite
    adc_dma.o(i.ADC1_GPIO_Config) refers to stm32f10x_rcc.o(i.RCC_AHBPeriphClockCmd) for RCC_AHBPeriphClockCmd
    adc_dma.o(i.ADC1_GPIO_Config) refers to stm32f10x_rcc.o(i.RCC_APB2PeriphClockCmd) for RCC_APB2PeriphClockCmd
    adc_dma.o(i.ADC1_GPIO_Config) refers to stm32f10x_gpio.o(i.GPIO_Init) for GPIO_Init
    adc_dma.o(i.ADC1_Init) refers to adc_dma.o(i.ADC1_GPIO_Config) for ADC1_GPIO_Config
    adc_dma.o(i.ADC1_Init) refers to adc_dma.o(i.ADC1_Mode_Config) for ADC1_Mode_Config
    adc_dma.o(i.ADC1_Mode_Config) refers to stm32f10x_dma.o(i.DMA_DeInit) for DMA_DeInit
    adc_dma.o(i.ADC1_Mode_Config) refers to stm32f10x_dma.o(i.DMA_Init) for DMA_Init
    adc_dma.o(i.ADC1_Mode_Config) refers to stm32f10x_dma.o(i.DMA_Cmd) for DMA_Cmd
    adc_dma.o(i.ADC1_Mode_Config) refers to stm32f10x_adc.o(i.ADC_Init) for ADC_Init
    adc_dma.o(i.ADC1_Mode_Config) refers to stm32f10x_rcc.o(i.RCC_ADCCLKConfig) for RCC_ADCCLKConfig
    adc_dma.o(i.ADC1_Mode_Config) refers to stm32f10x_adc.o(i.ADC_RegularChannelConfig) for ADC_RegularChannelConfig
    adc_dma.o(i.ADC1_Mode_Config) refers to stm32f10x_adc.o(i.ADC_DMACmd) for ADC_DMACmd
    adc_dma.o(i.ADC1_Mode_Config) refers to stm32f10x_adc.o(i.ADC_Cmd) for ADC_Cmd
    adc_dma.o(i.ADC1_Mode_Config) refers to stm32f10x_adc.o(i.ADC_ResetCalibration) for ADC_ResetCalibration
    adc_dma.o(i.ADC1_Mode_Config) refers to stm32f10x_adc.o(i.ADC_GetResetCalibrationStatus) for ADC_GetResetCalibrationStatus
    adc_dma.o(i.ADC1_Mode_Config) refers to stm32f10x_adc.o(i.ADC_StartCalibration) for ADC_StartCalibration
    adc_dma.o(i.ADC1_Mode_Config) refers to stm32f10x_adc.o(i.ADC_GetCalibrationStatus) for ADC_GetCalibrationStatus
    adc_dma.o(i.ADC1_Mode_Config) refers to stm32f10x_adc.o(i.ADC_SoftwareStartConvCmd) for ADC_SoftwareStartConvCmd
    adc_dma.o(i.ADC1_Mode_Config) refers to adc_dma.o(.data) for ADC_ConvertedValue
    ultrasonicwave.o(i.UltrasonicWave_CalculateTime) refers to stm32f10x_tim.o(i.TIM_GetCounter) for TIM_GetCounter
    ultrasonicwave.o(i.UltrasonicWave_CalculateTime) refers to ultrasonicwave.o(.data) for UltrasonicWave_Distance
    ultrasonicwave.o(i.UltrasonicWave_Configuration) refers to stm32f10x_rcc.o(i.RCC_APB2PeriphClockCmd) for RCC_APB2PeriphClockCmd
    ultrasonicwave.o(i.UltrasonicWave_Configuration) refers to stm32f10x_gpio.o(i.GPIO_Init) for GPIO_Init
    ultrasonicwave.o(i.UltrasonicWave_OK) refers to ultrasonicwave.o(i.UltrasonicWave_CalculateTime) for UltrasonicWave_CalculateTime
    ultrasonicwave.o(i.UltrasonicWave_OK) refers to stm32f10x_tim.o(i.TIM_SetCounter) for TIM_SetCounter
    ultrasonicwave.o(i.UltrasonicWave_OK) refers to ultrasonicwave.o(.data) for Ultrasonic_OK
    ultrasonicwave.o(i.UltrasonicWave_StartMeasure) refers to stm32f10x_gpio.o(i.GPIO_SetBits) for GPIO_SetBits
    ultrasonicwave.o(i.UltrasonicWave_StartMeasure) refers to ultrasonicwave.o(i.DelayTime_us) for DelayTime_us
    ultrasonicwave.o(i.UltrasonicWave_StartMeasure) refers to stm32f10x_gpio.o(i.GPIO_ResetBits) for GPIO_ResetBits
    ultrasonicwave.o(i.UltrasonicWave_StartMeasure) refers to ultrasonicwave.o(.data) for Ultrasonic_OK
    irda.o(i.EXTI_PB15_Config) refers to stm32f10x_rcc.o(i.RCC_APB2PeriphClockCmd) for RCC_APB2PeriphClockCmd
    irda.o(i.EXTI_PB15_Config) refers to irda.o(i.NVIC_Configuration) for NVIC_Configuration
    irda.o(i.EXTI_PB15_Config) refers to stm32f10x_gpio.o(i.GPIO_Init) for GPIO_Init
    irda.o(i.EXTI_PB15_Config) refers to stm32f10x_gpio.o(i.GPIO_EXTILineConfig) for GPIO_EXTILineConfig
    irda.o(i.EXTI_PB15_Config) refers to stm32f10x_exti.o(i.EXTI_Init) for EXTI_Init
    irda.o(i.Get_Pulse_Time) refers to bsp_systick.o(i.Delay_us) for Delay_us
    irda.o(i.Get_Pulse_Time) refers to stm32f10x_gpio.o(i.GPIO_ReadInputDataBit) for GPIO_ReadInputDataBit
    irda.o(i.IrDa_Init) refers to irda.o(i.EXTI_PB15_Config) for EXTI_PB15_Config
    irda.o(i.IrDa_Process) refers to irda.o(.data) for frame_data
    irda.o(i.NVIC_Configuration) refers to misc.o(i.NVIC_PriorityGroupConfig) for NVIC_PriorityGroupConfig
    irda.o(i.NVIC_Configuration) refers to misc.o(i.NVIC_Init) for NVIC_Init
    led_pwm.o(i.TIM2_GPIO_Config) refers to stm32f10x_rcc.o(i.RCC_APB1PeriphClockCmd) for RCC_APB1PeriphClockCmd
    led_pwm.o(i.TIM2_GPIO_Config) refers to stm32f10x_rcc.o(i.RCC_APB2PeriphClockCmd) for RCC_APB2PeriphClockCmd
    led_pwm.o(i.TIM2_GPIO_Config) refers to stm32f10x_gpio.o(i.GPIO_Init) for GPIO_Init
    led_pwm.o(i.TIM2_Mode_PWM1_Config) refers to stm32f10x_tim.o(i.TIM_TimeBaseInit) for TIM_TimeBaseInit
    led_pwm.o(i.TIM2_Mode_PWM1_Config) refers to stm32f10x_tim.o(i.TIM_OC1Init) for TIM_OC1Init
    led_pwm.o(i.TIM2_Mode_PWM1_Config) refers to stm32f10x_tim.o(i.TIM_OC1PreloadConfig) for TIM_OC1PreloadConfig
    led_pwm.o(i.TIM2_Mode_PWM1_Config) refers to stm32f10x_tim.o(i.TIM_ARRPreloadConfig) for TIM_ARRPreloadConfig
    led_pwm.o(i.TIM2_Mode_PWM1_Config) refers to stm32f10x_tim.o(i.TIM_Cmd) for TIM_Cmd
    led_pwm.o(i.TIM2_Mode_PWM2_Config) refers to stm32f10x_tim.o(i.TIM_TimeBaseInit) for TIM_TimeBaseInit
    led_pwm.o(i.TIM2_Mode_PWM2_Config) refers to stm32f10x_tim.o(i.TIM_OC2Init) for TIM_OC2Init
    led_pwm.o(i.TIM2_Mode_PWM2_Config) refers to stm32f10x_tim.o(i.TIM_OC2PreloadConfig) for TIM_OC2PreloadConfig
    led_pwm.o(i.TIM2_Mode_PWM2_Config) refers to stm32f10x_tim.o(i.TIM_ARRPreloadConfig) for TIM_ARRPreloadConfig
    led_pwm.o(i.TIM2_Mode_PWM2_Config) refers to stm32f10x_tim.o(i.TIM_Cmd) for TIM_Cmd
    led_pwm.o(i.TIM2_Mode_PWM3_Config) refers to stm32f10x_tim.o(i.TIM_TimeBaseInit) for TIM_TimeBaseInit
    led_pwm.o(i.TIM2_Mode_PWM3_Config) refers to stm32f10x_tim.o(i.TIM_OC3Init) for TIM_OC3Init
    led_pwm.o(i.TIM2_Mode_PWM3_Config) refers to stm32f10x_tim.o(i.TIM_OC3PreloadConfig) for TIM_OC3PreloadConfig
    led_pwm.o(i.TIM2_Mode_PWM3_Config) refers to stm32f10x_tim.o(i.TIM_ARRPreloadConfig) for TIM_ARRPreloadConfig
    led_pwm.o(i.TIM2_Mode_PWM3_Config) refers to stm32f10x_tim.o(i.TIM_Cmd) for TIM_Cmd
    led_pwm.o(i.TIM2_Mode_PWM4_Config) refers to stm32f10x_tim.o(i.TIM_TimeBaseInit) for TIM_TimeBaseInit
    led_pwm.o(i.TIM2_Mode_PWM4_Config) refers to stm32f10x_tim.o(i.TIM_OC4Init) for TIM_OC4Init
    led_pwm.o(i.TIM2_Mode_PWM4_Config) refers to stm32f10x_tim.o(i.TIM_OC4PreloadConfig) for TIM_OC4PreloadConfig
    led_pwm.o(i.TIM2_Mode_PWM4_Config) refers to stm32f10x_tim.o(i.TIM_ARRPreloadConfig) for TIM_ARRPreloadConfig
    led_pwm.o(i.TIM2_Mode_PWM4_Config) refers to stm32f10x_tim.o(i.TIM_Cmd) for TIM_Cmd
    led_pwm.o(i.TIM2_init) refers to led_pwm.o(i.TIM2_GPIO_Config) for TIM2_GPIO_Config
    led_pwm.o(i.TIM2_init) refers to led_pwm.o(i.TIM2_Mode_PWM1_Config) for TIM2_Mode_PWM1_Config
    led_pwm.o(i.TIM2_init) refers to led_pwm.o(i.TIM2_Mode_PWM2_Config) for TIM2_Mode_PWM2_Config
    led_pwm.o(i.TIM2_init) refers to led_pwm.o(i.TIM2_Mode_PWM3_Config) for TIM2_Mode_PWM3_Config
    led_pwm.o(i.TIM2_init) refers to led_pwm.o(i.TIM2_Mode_PWM4_Config) for TIM2_Mode_PWM4_Config
    tim_time.o(i.TIM7_Configuration) refers to stm32f10x_rcc.o(i.RCC_APB1PeriphClockCmd) for RCC_APB1PeriphClockCmd
    tim_time.o(i.TIM7_Configuration) refers to stm32f10x_tim.o(i.TIM_DeInit) for TIM_DeInit
    tim_time.o(i.TIM7_Configuration) refers to stm32f10x_tim.o(i.TIM_TimeBaseInit) for TIM_TimeBaseInit
    tim_time.o(i.TIM7_Configuration) refers to stm32f10x_tim.o(i.TIM_ClearFlag) for TIM_ClearFlag
    tim_time.o(i.TIM7_NVIC_Configuration) refers to misc.o(i.NVIC_PriorityGroupConfig) for NVIC_PriorityGroupConfig
    tim_time.o(i.TIM7_NVIC_Configuration) refers to misc.o(i.NVIC_Init) for NVIC_Init
    init_set.o(i.MENU_1) refers to oled.o(i.OLED_Clear) for OLED_Clear
    init_set.o(i.MENU_1) refers to oled.o(i.OLED_ShowString) for OLED_ShowString
    init_set.o(i.MENU_1) refers to oled.o(i.OLED_ShowChar) for OLED_ShowChar
    init_set.o(i.MENU_1) refers to irda.o(i.IrDa_Process) for IrDa_Process
    init_set.o(i.MENU_1) refers to init_set.o(i.MENU_1_1) for MENU_1_1
    init_set.o(i.MENU_1) refers to init_set.o(i.MENU_1_2) for MENU_1_2
    init_set.o(i.MENU_1) refers to init_set.o(i.MENU_1_3) for MENU_1_3
    init_set.o(i.MENU_1) refers to bsp_systick.o(i.Delay_us) for Delay_us
    init_set.o(i.MENU_1) refers to init_set.o(.data) for screen
    init_set.o(i.MENU_1) refers to irda.o(.data) for frame_flag
    init_set.o(i.MENU_1_1) refers to flash_rw.o(i.Flash_data_init) for Flash_data_init
    init_set.o(i.MENU_1_1) refers to oled.o(i.OLED_Clear) for OLED_Clear
    init_set.o(i.MENU_1_1) refers to oled.o(i.OLED_ShowString) for OLED_ShowString
    init_set.o(i.MENU_1_1) refers to oled.o(i.OLED_ShowChar) for OLED_ShowChar
    init_set.o(i.MENU_1_1) refers to oled.o(i.OLED_ShowNum) for OLED_ShowNum
    init_set.o(i.MENU_1_1) refers to irda.o(i.IrDa_Process) for IrDa_Process
    init_set.o(i.MENU_1_1) refers to bsp_systick.o(i.Delay_us) for Delay_us
    init_set.o(i.MENU_1_1) refers to fflti.o(.text) for __aeabi_i2f
    init_set.o(i.MENU_1_1) refers to fdiv.o(.text) for __aeabi_fdiv
    init_set.o(i.MENU_1_1) refers to flash_rw.o(i.write_flash_data) for write_flash_data
    init_set.o(i.MENU_1_1) refers to init_set.o(.data) for screen
    init_set.o(i.MENU_1_1) refers to pid_control.o(.data) for interior_KP
    init_set.o(i.MENU_1_1) refers to irda.o(.data) for frame_flag
    init_set.o(i.MENU_1_1) refers to flash_rw.o(.data) for FLASH_INPID_P_DATA
    init_set.o(i.MENU_1_2) refers to flash_rw.o(i.Flash_data_init) for Flash_data_init
    init_set.o(i.MENU_1_2) refers to oled.o(i.OLED_Clear) for OLED_Clear
    init_set.o(i.MENU_1_2) refers to oled.o(i.OLED_ShowString) for OLED_ShowString
    init_set.o(i.MENU_1_2) refers to oled.o(i.OLED_ShowChar) for OLED_ShowChar
    init_set.o(i.MENU_1_2) refers to oled.o(i.OLED_ShowNum) for OLED_ShowNum
    init_set.o(i.MENU_1_2) refers to irda.o(i.IrDa_Process) for IrDa_Process
    init_set.o(i.MENU_1_2) refers to init_set.o(.data) for screen
    init_set.o(i.MENU_1_2) refers to pid_control.o(.data) for external_KP
    init_set.o(i.MENU_1_2) refers to irda.o(.data) for frame_flag
    init_set.o(i.MENU_1_2) refers to bsp_systick.o(i.Delay_us) for Delay_us
    init_set.o(i.MENU_1_2) refers to fflti.o(.text) for __aeabi_i2f
    init_set.o(i.MENU_1_2) refers to f2d.o(.text) for __aeabi_f2d
    init_set.o(i.MENU_1_2) refers to ddiv.o(.text) for __aeabi_ddiv
    init_set.o(i.MENU_1_2) refers to d2f.o(.text) for __aeabi_d2f
    init_set.o(i.MENU_1_2) refers to flash_rw.o(i.write_flash_data) for write_flash_data
    init_set.o(i.MENU_1_2) refers to flash_rw.o(.data) for FLASH_OUTPID_P_DATA
    init_set.o(i.MENU_1_3) refers to oled.o(i.OLED_Clear) for OLED_Clear
    init_set.o(i.MENU_1_3) refers to oled.o(i.OLED_ShowString) for OLED_ShowString
    init_set.o(i.MENU_1_3) refers to oled.o(i.OLED_ShowChar) for OLED_ShowChar
    init_set.o(i.MENU_1_3) refers to irda.o(i.IrDa_Process) for IrDa_Process
    init_set.o(i.MENU_1_3) refers to init_set.o(i.MENU_1_3_1) for MENU_1_3_1
    init_set.o(i.MENU_1_3) refers to init_set.o(i.MENU_1_3_2) for MENU_1_3_2
    init_set.o(i.MENU_1_3) refers to bsp_systick.o(i.Delay_us) for Delay_us
    init_set.o(i.MENU_1_3) refers to init_set.o(.data) for screen
    init_set.o(i.MENU_1_3) refers to irda.o(.data) for frame_flag
    init_set.o(i.MENU_1_3_1) refers to flash_rw.o(i.Flash_data_init) for Flash_data_init
    init_set.o(i.MENU_1_3_1) refers to oled.o(i.OLED_Clear) for OLED_Clear
    init_set.o(i.MENU_1_3_1) refers to oled.o(i.OLED_ShowString) for OLED_ShowString
    init_set.o(i.MENU_1_3_1) refers to oled.o(i.OLED_ShowChar) for OLED_ShowChar
    init_set.o(i.MENU_1_3_1) refers to oled.o(i.OLED_ShowNum) for OLED_ShowNum
    init_set.o(i.MENU_1_3_1) refers to irda.o(i.IrDa_Process) for IrDa_Process
    init_set.o(i.MENU_1_3_1) refers to bsp_systick.o(i.Delay_us) for Delay_us
    init_set.o(i.MENU_1_3_1) refers to fflti.o(.text) for __aeabi_i2f
    init_set.o(i.MENU_1_3_1) refers to fdiv.o(.text) for __aeabi_fdiv
    init_set.o(i.MENU_1_3_1) refers to flash_rw.o(i.write_flash_data) for write_flash_data
    init_set.o(i.MENU_1_3_1) refers to init_set.o(.data) for screen
    init_set.o(i.MENU_1_3_1) refers to pid_control.o(.data) for YAWinterior_KP
    init_set.o(i.MENU_1_3_1) refers to irda.o(.data) for frame_flag
    init_set.o(i.MENU_1_3_1) refers to flash_rw.o(.data) for FLASH_YAWINPID_P_DATA
    init_set.o(i.MENU_1_3_2) refers to flash_rw.o(i.Flash_data_init) for Flash_data_init
    init_set.o(i.MENU_1_3_2) refers to oled.o(i.OLED_Clear) for OLED_Clear
    init_set.o(i.MENU_1_3_2) refers to oled.o(i.OLED_ShowString) for OLED_ShowString
    init_set.o(i.MENU_1_3_2) refers to oled.o(i.OLED_ShowChar) for OLED_ShowChar
    init_set.o(i.MENU_1_3_2) refers to oled.o(i.OLED_ShowNum) for OLED_ShowNum
    init_set.o(i.MENU_1_3_2) refers to irda.o(i.IrDa_Process) for IrDa_Process
    init_set.o(i.MENU_1_3_2) refers to init_set.o(.data) for screen
    init_set.o(i.MENU_1_3_2) refers to pid_control.o(.data) for YAWexternal_KP
    init_set.o(i.MENU_1_3_2) refers to irda.o(.data) for frame_flag
    init_set.o(i.MENU_1_3_2) refers to bsp_systick.o(i.Delay_us) for Delay_us
    init_set.o(i.MENU_1_3_2) refers to fflti.o(.text) for __aeabi_i2f
    init_set.o(i.MENU_1_3_2) refers to f2d.o(.text) for __aeabi_f2d
    init_set.o(i.MENU_1_3_2) refers to ddiv.o(.text) for __aeabi_ddiv
    init_set.o(i.MENU_1_3_2) refers to d2f.o(.text) for __aeabi_d2f
    init_set.o(i.MENU_1_3_2) refers to flash_rw.o(i.write_flash_data) for write_flash_data
    init_set.o(i.MENU_1_3_2) refers to flash_rw.o(.data) for FLASH_YAWOUTPID_P_DATA
    init_set.o(i.MENU_2) refers to oled.o(i.OLED_Clear) for OLED_Clear
    init_set.o(i.MENU_2) refers to oled.o(i.OLED_ShowCHinese) for OLED_ShowCHinese
    init_set.o(i.MENU_2) refers to irda.o(i.IrDa_Process) for IrDa_Process
    init_set.o(i.MENU_2) refers to bsp_systick.o(i.Delay_us) for Delay_us
    init_set.o(i.MENU_2) refers to init_set.o(.data) for screen
    init_set.o(i.MENU_2) refers to irda.o(.data) for frame_flag
    init_set.o(i.MENU_2) refers to pid_control.o(.data) for ERR_STOP
    init_set.o(i.MENU_3) refers to oled.o(i.OLED_Clear) for OLED_Clear
    init_set.o(i.MENU_3) refers to oled.o(i.OLED_ShowCHinese) for OLED_ShowCHinese
    init_set.o(i.MENU_3) refers to oled.o(i.OLED_ShowChar) for OLED_ShowChar
    init_set.o(i.MENU_3) refers to irda.o(i.IrDa_Process) for IrDa_Process
    init_set.o(i.MENU_3) refers to stm32f10x_rcc.o(i.RCC_APB1PeriphClockCmd) for RCC_APB1PeriphClockCmd
    init_set.o(i.MENU_3) refers to init_set.o(i.MENU_3_1) for MENU_3_1
    init_set.o(i.MENU_3) refers to init_set.o(i.MENU_3_2) for MENU_3_2
    init_set.o(i.MENU_3) refers to init_set.o(.data) for screen
    init_set.o(i.MENU_3) refers to irda.o(.data) for frame_flag
    init_set.o(i.MENU_3_1) refers to oled.o(i.OLED_Clear) for OLED_Clear
    init_set.o(i.MENU_3_1) refers to oled.o(i.OLED_ShowCHinese) for OLED_ShowCHinese
    init_set.o(i.MENU_3_1) refers to mpu6050.o(i.MPU9250ReadMag) for MPU9250ReadMag
    init_set.o(i.MENU_3_1) refers to data_exchang.o(i.calibration_Mag) for calibration_Mag
    init_set.o(i.MENU_3_1) refers to fflti.o(.text) for __aeabi_i2f
    init_set.o(i.MENU_3_1) refers to fdiv.o(.text) for __aeabi_fdiv
    init_set.o(i.MENU_3_1) refers to f2d.o(.text) for __aeabi_f2d
    init_set.o(i.MENU_3_1) refers to dmul.o(.text) for __aeabi_dmul
    init_set.o(i.MENU_3_1) refers to dfixui.o(.text) for __aeabi_d2uiz
    init_set.o(i.MENU_3_1) refers to oled.o(i.OLED_ShowNum) for OLED_ShowNum
    init_set.o(i.MENU_3_1) refers to init_set.o(i.complete_data) for complete_data
    init_set.o(i.MENU_3_1) refers to irda.o(i.IrDa_Process) for IrDa_Process
    init_set.o(i.MENU_3_1) refers to flash_rw.o(i.read_flash_data) for read_flash_data
    init_set.o(i.MENU_3_1) refers to init_set.o(.data) for screen
    init_set.o(i.MENU_3_1) refers to data_exchang.o(.data) for Xscope
    init_set.o(i.MENU_3_1) refers to data_exchang.o(.bss) for Mag_corr
    init_set.o(i.MENU_3_1) refers to stm32f10x_it.o(.data) for AGM_START
    init_set.o(i.MENU_3_1) refers to irda.o(.data) for frame_flag
    init_set.o(i.MENU_3_1) refers to flash_rw.o(.data) for FLASH_MAG_X_DATA
    init_set.o(i.MENU_3_2) refers to oled.o(i.OLED_Clear) for OLED_Clear
    init_set.o(i.MENU_3_2) refers to oled.o(i.OLED_ShowCHinese) for OLED_ShowCHinese
    init_set.o(i.MENU_3_2) refers to mpu6050.o(i.MPU6050ReadAcc) for MPU6050ReadAcc
    init_set.o(i.MENU_3_2) refers to mpu6050.o(i.MPU6050ReadGyro) for MPU6050ReadGyro
    init_set.o(i.MENU_3_2) refers to data_exchang.o(i.calibration_GA) for calibration_GA
    init_set.o(i.MENU_3_2) refers to oled.o(i.OLED_ShowNum) for OLED_ShowNum
    init_set.o(i.MENU_3_2) refers to flash_rw.o(i.read_flash_data) for read_flash_data
    init_set.o(i.MENU_3_2) refers to init_set.o(i.complete_GA_data) for complete_GA_data
    init_set.o(i.MENU_3_2) refers to irda.o(i.IrDa_Process) for IrDa_Process
    init_set.o(i.MENU_3_2) refers to init_set.o(.data) for screen
    init_set.o(i.MENU_3_2) refers to data_exchang.o(.data) for calibration_GA_time
    init_set.o(i.MENU_3_2) refers to stm32f10x_it.o(.data) for AGM_START
    init_set.o(i.MENU_3_2) refers to flash_rw.o(.data) for FLASH_Gyro_X_DATA
    init_set.o(i.MENU_3_2) refers to irda.o(.data) for frame_flag
    init_set.o(i.complete_GA_data) refers to oled.o(i.OLED_Clear) for OLED_Clear
    init_set.o(i.complete_GA_data) refers to oled.o(i.OLED_ShowCHinese) for OLED_ShowCHinese
    init_set.o(i.complete_GA_data) refers to oled.o(i.OLED_ShowCHinese_inverse) for OLED_ShowCHinese_inverse
    init_set.o(i.complete_GA_data) refers to irda.o(i.IrDa_Process) for IrDa_Process
    init_set.o(i.complete_GA_data) refers to flash_rw.o(i.read_flash_data) for read_flash_data
    init_set.o(i.complete_GA_data) refers to flash_rw.o(i.write_flash_data) for write_flash_data
    init_set.o(i.complete_GA_data) refers to init_set.o(.data) for screen
    init_set.o(i.complete_GA_data) refers to irda.o(.data) for frame_flag
    init_set.o(i.complete_GA_data) refers to data_exchang.o(.data) for offset_GX
    init_set.o(i.complete_GA_data) refers to flash_rw.o(.data) for FLASH_Gyro_X_DATA
    init_set.o(i.complete_data) refers to oled.o(i.OLED_Clear) for OLED_Clear
    init_set.o(i.complete_data) refers to oled.o(i.OLED_ShowCHinese) for OLED_ShowCHinese
    init_set.o(i.complete_data) refers to oled.o(i.OLED_ShowCHinese_inverse) for OLED_ShowCHinese_inverse
    init_set.o(i.complete_data) refers to irda.o(i.IrDa_Process) for IrDa_Process
    init_set.o(i.complete_data) refers to printfa.o(i.__0printf) for __2printf
    init_set.o(i.complete_data) refers to flash_rw.o(i.read_flash_data) for read_flash_data
    init_set.o(i.complete_data) refers to flash_rw.o(i.write_flash_data) for write_flash_data
    init_set.o(i.complete_data) refers to init_set.o(.data) for screen
    init_set.o(i.complete_data) refers to irda.o(.data) for frame_flag
    init_set.o(i.complete_data) refers to data_exchang.o(.data) for Zoffset
    init_set.o(i.complete_data) refers to flash_rw.o(.data) for FLASH_MAG_X_DATA
    init_set.o(i.set_data) refers to irda.o(i.IrDa_Process) for IrDa_Process
    init_set.o(i.set_data) refers to stm32f10x_rcc.o(i.RCC_APB1PeriphClockCmd) for RCC_APB1PeriphClockCmd
    init_set.o(i.set_data) refers to pwm_config.o(i.TIM3_Mode_PWM1_Config) for TIM3_Mode_PWM1_Config
    init_set.o(i.set_data) refers to pwm_config.o(i.TIM3_Mode_PWM2_Config) for TIM3_Mode_PWM2_Config
    init_set.o(i.set_data) refers to pwm_config.o(i.TIM3_Mode_PWM3_Config) for TIM3_Mode_PWM3_Config
    init_set.o(i.set_data) refers to pwm_config.o(i.TIM3_Mode_PWM4_Config) for TIM3_Mode_PWM4_Config
    init_set.o(i.set_data) refers to oled.o(i.OLED_Clear) for OLED_Clear
    init_set.o(i.set_data) refers to oled.o(i.OLED_ShowCHinese) for OLED_ShowCHinese
    init_set.o(i.set_data) refers to oled.o(i.OLED_ShowChar) for OLED_ShowChar
    init_set.o(i.set_data) refers to init_set.o(i.MENU_1) for MENU_1
    init_set.o(i.set_data) refers to init_set.o(i.MENU_2) for MENU_2
    init_set.o(i.set_data) refers to init_set.o(i.MENU_3) for MENU_3
    init_set.o(i.set_data) refers to oled.o(i.OLED_ShowString) for OLED_ShowString
    init_set.o(i.set_data) refers to irda.o(.data) for frame_flag
    init_set.o(i.set_data) refers to init_set.o(.data) for key_val
    init_set.o(i.set_data) refers to pid_control.o(.data) for ERR_STOP
    data_exchang.o(i.MAG_data) refers to data_exchang.o(.data) for Xlast
    data_exchang.o(i.YAW_data_init) refers to ahrs.o(i.init_quaternion) for init_quaternion
    data_exchang.o(i.YAW_data_init) refers to data_exchang.o(i.data_handling) for data_handling
    data_exchang.o(i.YAW_data_init) refers to stm32f10x_it.o(.data) for AGM_START
    data_exchang.o(i.YAW_data_init) refers to data_exchang.o(.bss) for angle
    data_exchang.o(i.YAW_data_init) refers to pid_control.o(.data) for START_YAW
    data_exchang.o(i.calibration_GA) refers to fflti.o(.text) for __aeabi_i2f
    data_exchang.o(i.calibration_GA) refers to f2d.o(.text) for __aeabi_f2d
    data_exchang.o(i.calibration_GA) refers to ddiv.o(.text) for __aeabi_ddiv
    data_exchang.o(i.calibration_GA) refers to dadd.o(.text) for __aeabi_dadd
    data_exchang.o(i.calibration_GA) refers to dfixi.o(.text) for __aeabi_d2iz
    data_exchang.o(i.calibration_GA) refers to data_exchang.o(.data) for calibration_GA_time
    data_exchang.o(i.calibration_Mag) refers to printfa.o(i.__0printf) for __2printf
    data_exchang.o(i.calibration_Mag) refers to fflti.o(.text) for __aeabi_i2f
    data_exchang.o(i.calibration_Mag) refers to ffixi.o(.text) for __aeabi_f2iz
    data_exchang.o(i.calibration_Mag) refers to fdiv.o(.text) for __aeabi_fdiv
    data_exchang.o(i.calibration_Mag) refers to f2d.o(.text) for __aeabi_f2d
    data_exchang.o(i.calibration_Mag) refers to atan.o(i.atan) for atan
    data_exchang.o(i.calibration_Mag) refers to dmul.o(.text) for __aeabi_dmul
    data_exchang.o(i.calibration_Mag) refers to data_exchang.o(.data) for Xlast
    data_exchang.o(i.calibration_Mag) refers to data_exchang.o(.bss) for Mag_corr
    data_exchang.o(i.change) refers to ffixi.o(.text) for __aeabi_f2iz
    data_exchang.o(i.change) refers to fflti.o(.text) for __aeabi_i2f
    data_exchang.o(i.change) refers to dflti.o(.text) for __aeabi_i2d
    data_exchang.o(i.change) refers to ddiv.o(.text) for __aeabi_ddiv
    data_exchang.o(i.change) refers to d2f.o(.text) for __aeabi_d2f
    data_exchang.o(i.change) refers to f2d.o(.text) for __aeabi_f2d
    data_exchang.o(i.change) refers to atan2.o(i.atan2) for atan2
    data_exchang.o(i.change) refers to dmul.o(.text) for __aeabi_dmul
    data_exchang.o(i.change) refers to fmul.o(.text) for __aeabi_fmul
    data_exchang.o(i.change) refers to fadd.o(.text) for __aeabi_fadd
    data_exchang.o(i.change) refers to sqrt.o(i.sqrt) for sqrt
    data_exchang.o(i.change) refers to atan.o(i.atan) for atan
    data_exchang.o(i.change) refers to dadd.o(.text) for __aeabi_dadd
    data_exchang.o(i.change) refers to data_exchang.o(.bss) for averag_Acel
    data_exchang.o(i.data_handling) refers to mpu6050.o(i.MPU6050Read_all) for MPU6050Read_all
    data_exchang.o(i.data_handling) refers to mpu6050.o(i.MPU9250ReadMag) for MPU9250ReadMag
    data_exchang.o(i.data_handling) refers to fflti.o(.text) for __aeabi_i2f
    data_exchang.o(i.data_handling) refers to fdiv.o(.text) for __aeabi_fdiv
    data_exchang.o(i.data_handling) refers to f2d.o(.text) for __aeabi_f2d
    data_exchang.o(i.data_handling) refers to ddiv.o(.text) for __aeabi_ddiv
    data_exchang.o(i.data_handling) refers to d2f.o(.text) for __aeabi_d2f
    data_exchang.o(i.data_handling) refers to fadd.o(.text) for __aeabi_fsub
    data_exchang.o(i.data_handling) refers to data_exchang.o(i.MAG_data) for MAG_data
    data_exchang.o(i.data_handling) refers to kalman_filter.o(i.DATA_Kalman_Filter) for DATA_Kalman_Filter
    data_exchang.o(i.data_handling) refers to ahrs.o(i.AHRSupdate) for AHRSupdate
    data_exchang.o(i.data_handling) refers to data_exchang.o(.data) for TEMP
    data_exchang.o(i.data_handling) refers to data_exchang.o(.bss) for value_gyro
    data_exchang.o(i.data_init) refers to data_exchang.o(i.data_handling) for data_handling
    data_exchang.o(i.data_init) refers to pid_control.o(i.PID_control) for PID_control
    data_exchang.o(i.data_init) refers to bmp_280.o(i.BMP280_GetPressure) for BMP280_GetPressure
    data_exchang.o(i.data_init) refers to ffltui.o(.text) for __aeabi_ui2f
    data_exchang.o(i.data_init) refers to fdiv.o(.text) for __aeabi_fdiv
    data_exchang.o(i.data_init) refers to f2d.o(.text) for __aeabi_f2d
    data_exchang.o(i.data_init) refers to dmul.o(.text) for __aeabi_dmul
    data_exchang.o(i.data_init) refers to dfixui.o(.text) for __aeabi_d2uiz
    data_exchang.o(i.data_init) refers to oled.o(i.OLED_ShowNum) for OLED_ShowNum
    data_exchang.o(i.data_init) refers to ultrasonicwave.o(i.UltrasonicWave_StartMeasure) for UltrasonicWave_StartMeasure
    data_exchang.o(i.data_init) refers to bmp_280.o(i.BMP280_GetTemperature) for BMP280_GetTemperature
    data_exchang.o(i.data_init) refers to ultrasonicwave.o(i.UltrasonicWave_OK) for UltrasonicWave_OK
    data_exchang.o(i.data_init) refers to stm32f10x_it.o(.data) for AGM_START
    data_exchang.o(i.data_init) refers to data_exchang.o(.data) for Press
    data_exchang.o(i.data_init) refers to adc_dma.o(.data) for ADC_ConvertedValue
    data_exchang.o(i.data_init) refers to main.o(.data) for ADC_ConvertedValueLocal
    swap_data.o(i.Data_Send_Status) refers to fmul.o(.text) for __aeabi_fmul
    swap_data.o(i.Data_Send_Status) refers to ffixi.o(.text) for __aeabi_f2iz
    swap_data.o(i.Data_Send_Status) refers to gpio_config.o(i.send_USART1) for send_USART1
    swap_data.o(i.Data_Send_Status) refers to swap_data.o(.data) for Alt
    swap_data.o(i.Data_Send_Status) refers to swap_data.o(.bss) for data_to_send
    swap_data.o(i.data_chang) refers to ffixi.o(.text) for __aeabi_f2iz
    swap_data.o(i.data_chang) refers to dflti.o(.text) for __aeabi_i2d
    swap_data.o(i.data_chang) refers to ddiv.o(.text) for __aeabi_ddiv
    swap_data.o(i.data_chang) refers to ffltui.o(.text) for __aeabi_ui2f
    swap_data.o(i.data_chang) refers to fdiv.o(.text) for __aeabi_fdiv
    swap_data.o(i.data_chang) refers to f2d.o(.text) for __aeabi_f2d
    swap_data.o(i.data_chang) refers to dmul.o(.text) for __aeabi_dmul
    swap_data.o(i.data_chang) refers to stm32f10x_it.o(.data) for rx_num
    swap_data.o(i.data_chang) refers to nr24l01_reg.o(.data) for TxBuf
    swap_data.o(i.data_chang) refers to data_exchang.o(.bss) for averag_Acel
    swap_data.o(i.data_chang) refers to pid_control.o(.data) for roll_PWM
    swap_data.o(i.data_chang) refers to swap_data.o(.data) for RX_num
    swap_data.o(i.send_line) refers to gpio_config.o(i.send_byte_USART1) for send_byte_USART1
    swap_data.o(i.sent_data_com) refers to gpio_config.o(i.send_USART1) for send_USART1
    swap_data.o(i.sent_data_com) refers to data_exchang.o(.data) for Acel
    swap_data.o(i.sent_data_com) refers to swap_data.o(.data) for ACC_X
    swap_data.o(i.sent_data_com) refers to swap_data.o(.bss) for data_to_send
    led_config.o(i.LED_GPIO_Config) refers to stm32f10x_rcc.o(i.RCC_APB2PeriphClockCmd) for RCC_APB2PeriphClockCmd
    led_config.o(i.LED_GPIO_Config) refers to stm32f10x_gpio.o(i.GPIO_Init) for GPIO_Init
    led_config.o(i.LED_GPIO_Config) refers to stm32f10x_gpio.o(i.GPIO_SetBits) for GPIO_SetBits
    ahrs.o(i.AHRSupdate) refers to fmul.o(.text) for __aeabi_fmul
    ahrs.o(i.AHRSupdate) refers to fadd.o(.text) for __aeabi_fadd
    ahrs.o(i.AHRSupdate) refers to ahrs.o(i.invSqrt) for invSqrt
    ahrs.o(i.AHRSupdate) refers to f2d.o(.text) for __aeabi_f2d
    ahrs.o(i.AHRSupdate) refers to dadd.o(.text) for __aeabi_drsub
    ahrs.o(i.AHRSupdate) refers to dmul.o(.text) for __aeabi_dmul
    ahrs.o(i.AHRSupdate) refers to d2f.o(.text) for __aeabi_d2f
    ahrs.o(i.AHRSupdate) refers to sqrtf.o(i.sqrtf) for sqrtf
    ahrs.o(i.AHRSupdate) refers to ahrs.o(.data) for q0
    ahrs.o(i.AHRSupdate) refers to cfcmple.o(.text) for __aeabi_cfcmpeq
    ahrs.o(i.AHRSupdate) refers to atan2.o(i.atan2) for atan2
    ahrs.o(i.AHRSupdate) refers to cfrcmple.o(.text) for __aeabi_cfrcmple
    ahrs.o(i.AHRSupdate) refers to asin.o(i.asin) for asin
    ahrs.o(i.AHRSupdate) refers to data_exchang.o(.bss) for angle
    ahrs.o(i.COS) refers to fmul.o(.text) for __aeabi_fmul
    ahrs.o(i.COS) refers to fdiv.o(.text) for __aeabi_fdiv
    ahrs.o(i.COS) refers to fadd.o(.text) for __aeabi_frsub
    ahrs.o(i.FL_ABS) refers to cfcmple.o(.text) for __aeabi_cfcmple
    ahrs.o(i.Q_rsqrt) refers to fmul.o(.text) for __aeabi_fmul
    ahrs.o(i.Q_rsqrt) refers to fadd.o(.text) for __aeabi_frsub
    ahrs.o(i.SIN) refers to fmul.o(.text) for __aeabi_fmul
    ahrs.o(i.SIN) refers to fdiv.o(.text) for __aeabi_fdiv
    ahrs.o(i.SIN) refers to fadd.o(.text) for __aeabi_frsub
    ahrs.o(i.VariableParameter) refers to cfcmple.o(.text) for __aeabi_cfcmple
    ahrs.o(i.VariableParameter) refers to cfrcmple.o(.text) for __aeabi_cfrcmple
    ahrs.o(i.VariableParameter) refers to f2d.o(.text) for __aeabi_f2d
    ahrs.o(i.VariableParameter) refers to dmul.o(.text) for __aeabi_dmul
    ahrs.o(i.VariableParameter) refers to dadd.o(.text) for __aeabi_drsub
    ahrs.o(i.VariableParameter) refers to d2f.o(.text) for __aeabi_d2f
    ahrs.o(i.init_quaternion) refers to mpu6050.o(i.MPU6050ReadAcc) for MPU6050ReadAcc
    ahrs.o(i.init_quaternion) refers to fflti.o(.text) for __aeabi_i2f
    ahrs.o(i.init_quaternion) refers to fdiv.o(.text) for __aeabi_fdiv
    ahrs.o(i.init_quaternion) refers to f2d.o(.text) for __aeabi_f2d
    ahrs.o(i.init_quaternion) refers to printfa.o(i.__0printf) for __2printf
    ahrs.o(i.init_quaternion) refers to mpu6050.o(i.MPU9250ReadMag) for MPU9250ReadMag
    ahrs.o(i.init_quaternion) refers to fadd.o(.text) for __aeabi_fsub
    ahrs.o(i.init_quaternion) refers to fmul.o(.text) for __aeabi_fmul
    ahrs.o(i.init_quaternion) refers to dadd.o(.text) for __aeabi_dsub
    ahrs.o(i.init_quaternion) refers to d2f.o(.text) for __aeabi_d2f
    ahrs.o(i.init_quaternion) refers to atan2.o(i.atan2) for atan2
    ahrs.o(i.init_quaternion) refers to asin.o(i.asin) for asin
    ahrs.o(i.init_quaternion) refers to sin.o(i.sin) for sin
    ahrs.o(i.init_quaternion) refers to dmul.o(.text) for __aeabi_dmul
    ahrs.o(i.init_quaternion) refers to cos.o(i.cos) for cos
    ahrs.o(i.init_quaternion) refers to cfcmple.o(.text) for __aeabi_cfcmple
    ahrs.o(i.init_quaternion) refers to cfrcmple.o(.text) for __aeabi_cfrcmple
    ahrs.o(i.init_quaternion) refers to data_exchang.o(.data) for Acel
    ahrs.o(i.init_quaternion) refers to ahrs.o(.data) for init_ax
    ahrs.o(i.invSqrt) refers to fmul.o(.text) for __aeabi_fmul
    ahrs.o(i.invSqrt) refers to fadd.o(.text) for __aeabi_frsub
    flash_rw.o(i.Flash_data_init) refers to flash_rw.o(i.read_flash_data) for read_flash_data
    flash_rw.o(i.Flash_data_init) refers to fflti.o(.text) for __aeabi_i2f
    flash_rw.o(i.Flash_data_init) refers to f2d.o(.text) for __aeabi_f2d
    flash_rw.o(i.Flash_data_init) refers to ddiv.o(.text) for __aeabi_ddiv
    flash_rw.o(i.Flash_data_init) refers to d2f.o(.text) for __aeabi_d2f
    flash_rw.o(i.Flash_data_init) refers to flash_rw.o(.data) for FLASH_MAG_X_DATA
    flash_rw.o(i.Flash_data_init) refers to data_exchang.o(.data) for Xoffset
    flash_rw.o(i.Flash_data_init) refers to pid_control.o(.data) for external_KP
    flash_rw.o(i.WriteFlashOneWord) refers to stm32f10x_flash.o(i.FLASH_UnlockBank1) for FLASH_UnlockBank1
    flash_rw.o(i.WriteFlashOneWord) refers to stm32f10x_flash.o(i.FLASH_ClearFlag) for FLASH_ClearFlag
    flash_rw.o(i.WriteFlashOneWord) refers to stm32f10x_flash.o(i.FLASH_ErasePage) for FLASH_ErasePage
    flash_rw.o(i.WriteFlashOneWord) refers to stm32f10x_flash.o(i.FLASH_ProgramWord) for FLASH_ProgramWord
    flash_rw.o(i.WriteFlashOneWord) refers to stm32f10x_flash.o(i.FLASH_LockBank1) for FLASH_LockBank1
    flash_rw.o(i.WriteFlashOneWord) refers to flash_rw.o(.data) for FLASHStatus
    flash_rw.o(i.data_turn) refers to flash_rw.o(.bss) for flash_data
    flash_rw.o(i.read_flash_data) refers to flash_rw.o(i.ReadFlashNBtye) for ReadFlashNBtye
    flash_rw.o(i.read_flash_data) refers to flash_rw.o(i.data_turn) for data_turn
    flash_rw.o(i.read_flash_data) refers to flash_rw.o(.bss) for flash_data
    flash_rw.o(i.read_flash_data) refers to flash_rw.o(.data) for FLASH_MAG_X_DATA
    flash_rw.o(i.write_flash_data) refers to flash_rw.o(i.WriteFlashOneWord) for WriteFlashOneWord
    kalman_filter.o(i.DATA_Kalman_Filter) refers to f2d.o(.text) for __aeabi_f2d
    kalman_filter.o(i.DATA_Kalman_Filter) refers to kalman_filter.o(i.KalmanFilter_x) for KalmanFilter_x
    kalman_filter.o(i.DATA_Kalman_Filter) refers to d2f.o(.text) for __aeabi_d2f
    kalman_filter.o(i.DATA_Kalman_Filter) refers to kalman_filter.o(i.KalmanFilter_y) for KalmanFilter_y
    kalman_filter.o(i.DATA_Kalman_Filter) refers to kalman_filter.o(i.KalmanFilter_z) for KalmanFilter_z
    kalman_filter.o(i.DATA_Kalman_Filter) refers to data_exchang.o(.bss) for origin_Acel
    kalman_filter.o(i.KalmanFilter_Gx) refers to dadd.o(.text) for __aeabi_dadd
    kalman_filter.o(i.KalmanFilter_Gx) refers to ddiv.o(.text) for __aeabi_ddiv
    kalman_filter.o(i.KalmanFilter_Gx) refers to dmul.o(.text) for __aeabi_dmul
    kalman_filter.o(i.KalmanFilter_Gx) refers to kalman_filter.o(.data) for x_last
    kalman_filter.o(i.KalmanFilter_Gy) refers to dadd.o(.text) for __aeabi_dadd
    kalman_filter.o(i.KalmanFilter_Gy) refers to ddiv.o(.text) for __aeabi_ddiv
    kalman_filter.o(i.KalmanFilter_Gy) refers to dmul.o(.text) for __aeabi_dmul
    kalman_filter.o(i.KalmanFilter_Gy) refers to kalman_filter.o(.data) for x_last
    kalman_filter.o(i.KalmanFilter_Gz) refers to dadd.o(.text) for __aeabi_dadd
    kalman_filter.o(i.KalmanFilter_Gz) refers to ddiv.o(.text) for __aeabi_ddiv
    kalman_filter.o(i.KalmanFilter_Gz) refers to dmul.o(.text) for __aeabi_dmul
    kalman_filter.o(i.KalmanFilter_Gz) refers to kalman_filter.o(.data) for x_last
    kalman_filter.o(i.KalmanFilter_x) refers to dadd.o(.text) for __aeabi_dadd
    kalman_filter.o(i.KalmanFilter_x) refers to ddiv.o(.text) for __aeabi_ddiv
    kalman_filter.o(i.KalmanFilter_x) refers to dmul.o(.text) for __aeabi_dmul
    kalman_filter.o(i.KalmanFilter_x) refers to kalman_filter.o(.data) for x_last
    kalman_filter.o(i.KalmanFilter_y) refers to dadd.o(.text) for __aeabi_dadd
    kalman_filter.o(i.KalmanFilter_y) refers to ddiv.o(.text) for __aeabi_ddiv
    kalman_filter.o(i.KalmanFilter_y) refers to dmul.o(.text) for __aeabi_dmul
    kalman_filter.o(i.KalmanFilter_y) refers to kalman_filter.o(.data) for x_last
    kalman_filter.o(i.KalmanFilter_z) refers to dadd.o(.text) for __aeabi_dadd
    kalman_filter.o(i.KalmanFilter_z) refers to ddiv.o(.text) for __aeabi_ddiv
    kalman_filter.o(i.KalmanFilter_z) refers to dmul.o(.text) for __aeabi_dmul
    kalman_filter.o(i.KalmanFilter_z) refers to kalman_filter.o(.data) for x_last
    pid_control.o(i.PID_control) refers to pid_control.o(i.PID_roll_Control) for PID_roll_Control
    pid_control.o(i.PID_control) refers to pid_control.o(i.PID_pitch_Control) for PID_pitch_Control
    pid_control.o(i.PID_control) refers to pid_control.o(i.PID_yaw_Control) for PID_yaw_Control
    pid_control.o(i.PID_control) refers to ffixi.o(.text) for __aeabi_f2iz
    pid_control.o(i.PID_control) refers to fmul.o(.text) for __aeabi_fmul
    pid_control.o(i.PID_control) refers to swap_data.o(i.send_line) for send_line
    pid_control.o(i.PID_control) refers to data_exchang.o(.bss) for angle
    pid_control.o(i.PID_control) refers to stm32f10x_it.o(.data) for TIME_20ms
    pid_control.o(i.PID_control) refers to pid_control.o(.data) for START_YAW
    pid_control.o(i.PID_pitch_Control) refers to dflti.o(.text) for __aeabi_i2d
    pid_control.o(i.PID_pitch_Control) refers to dmul.o(.text) for __aeabi_dmul
    pid_control.o(i.PID_pitch_Control) refers to d2f.o(.text) for __aeabi_d2f
    pid_control.o(i.PID_pitch_Control) refers to fadd.o(.text) for __aeabi_fadd
    pid_control.o(i.PID_pitch_Control) refers to cfrcmple.o(.text) for __aeabi_cfrcmple
    pid_control.o(i.PID_pitch_Control) refers to oled.o(i.OLED_ShowString) for OLED_ShowString
    pid_control.o(i.PID_pitch_Control) refers to cfcmple.o(.text) for __aeabi_cfcmple
    pid_control.o(i.PID_pitch_Control) refers to f2d.o(.text) for __aeabi_f2d
    pid_control.o(i.PID_pitch_Control) refers to cdrcmple.o(.text) for __aeabi_cdrcmple
    pid_control.o(i.PID_pitch_Control) refers to cdcmple.o(.text) for __aeabi_cdcmple
    pid_control.o(i.PID_pitch_Control) refers to fmul.o(.text) for __aeabi_fmul
    pid_control.o(i.PID_pitch_Control) refers to pid_control.o(i.averag_gyro_Y) for averag_gyro_Y
    pid_control.o(i.PID_pitch_Control) refers to dadd.o(.text) for __aeabi_dadd
    pid_control.o(i.PID_pitch_Control) refers to dfixi.o(.text) for __aeabi_d2iz
    pid_control.o(i.PID_pitch_Control) refers to swap_data.o(.data) for pitch_IN
    pid_control.o(i.PID_pitch_Control) refers to pid_control.o(.data) for ERR_STOP
    pid_control.o(i.PID_pitch_Control) refers to pid_control.o(.bss) for spend_err_pitch_external
    pid_control.o(i.PID_pitch_Control) refers to data_exchang.o(.bss) for value_gyro
    pid_control.o(i.PID_roll_Control) refers to dflti.o(.text) for __aeabi_i2d
    pid_control.o(i.PID_roll_Control) refers to dmul.o(.text) for __aeabi_dmul
    pid_control.o(i.PID_roll_Control) refers to d2f.o(.text) for __aeabi_d2f
    pid_control.o(i.PID_roll_Control) refers to fadd.o(.text) for __aeabi_fadd
    pid_control.o(i.PID_roll_Control) refers to cfrcmple.o(.text) for __aeabi_cfrcmple
    pid_control.o(i.PID_roll_Control) refers to oled.o(i.OLED_ShowString) for OLED_ShowString
    pid_control.o(i.PID_roll_Control) refers to cfcmple.o(.text) for __aeabi_cfcmple
    pid_control.o(i.PID_roll_Control) refers to fmul.o(.text) for __aeabi_fmul
    pid_control.o(i.PID_roll_Control) refers to pid_control.o(i.averag_gyro_X) for averag_gyro_X
    pid_control.o(i.PID_roll_Control) refers to f2d.o(.text) for __aeabi_f2d
    pid_control.o(i.PID_roll_Control) refers to cdrcmple.o(.text) for __aeabi_cdrcmple
    pid_control.o(i.PID_roll_Control) refers to cdcmple.o(.text) for __aeabi_cdcmple
    pid_control.o(i.PID_roll_Control) refers to dadd.o(.text) for __aeabi_dadd
    pid_control.o(i.PID_roll_Control) refers to dfixi.o(.text) for __aeabi_d2iz
    pid_control.o(i.PID_roll_Control) refers to swap_data.o(.data) for roll_IN
    pid_control.o(i.PID_roll_Control) refers to pid_control.o(.data) for ERR_STOP
    pid_control.o(i.PID_roll_Control) refers to pid_control.o(.bss) for spend_err_roll_external
    pid_control.o(i.PID_roll_Control) refers to data_exchang.o(.bss) for value_gyro
    pid_control.o(i.PID_yaw_Control) refers to f2d.o(.text) for __aeabi_f2d
    pid_control.o(i.PID_yaw_Control) refers to dadd.o(.text) for __aeabi_dadd
    pid_control.o(i.PID_yaw_Control) refers to cdrcmple.o(.text) for __aeabi_cdrcmple
    pid_control.o(i.PID_yaw_Control) refers to fadd.o(.text) for __aeabi_fsub
    pid_control.o(i.PID_yaw_Control) refers to d2f.o(.text) for __aeabi_d2f
    pid_control.o(i.PID_yaw_Control) refers to cdcmple.o(.text) for __aeabi_cdcmple
    pid_control.o(i.PID_yaw_Control) refers to cfrcmple.o(.text) for __aeabi_cfrcmple
    pid_control.o(i.PID_yaw_Control) refers to cfcmple.o(.text) for __aeabi_cfcmple
    pid_control.o(i.PID_yaw_Control) refers to fmul.o(.text) for __aeabi_fmul
    pid_control.o(i.PID_yaw_Control) refers to pid_control.o(i.averag_gyro_Z) for averag_gyro_Z
    pid_control.o(i.PID_yaw_Control) refers to ffixi.o(.text) for __aeabi_f2iz
    pid_control.o(i.PID_yaw_Control) refers to dflti.o(.text) for __aeabi_i2d
    pid_control.o(i.PID_yaw_Control) refers to dfixi.o(.text) for __aeabi_d2iz
    pid_control.o(i.PID_yaw_Control) refers to pid_control.o(.data) for clean_value
    pid_control.o(i.PID_yaw_Control) refers to pid_control.o(.bss) for spend_err_yaw_external
    pid_control.o(i.PID_yaw_Control) refers to data_exchang.o(.bss) for value_gyro
    pid_control.o(i.PWM_control) refers to fflti.o(.text) for __aeabi_i2f
    pid_control.o(i.PWM_control) refers to fadd.o(.text) for __aeabi_fadd
    pid_control.o(i.PWM_control) refers to f2d.o(.text) for __aeabi_f2d
    pid_control.o(i.PWM_control) refers to dadd.o(.text) for __aeabi_dadd
    pid_control.o(i.PWM_control) refers to dfixi.o(.text) for __aeabi_d2iz
    pid_control.o(i.PWM_control) refers to swap_data.o(.data) for accelerator_IN
    pid_control.o(i.PWM_control) refers to init_set.o(.data) for POWER_set
    pid_control.o(i.PWM_control) refers to pid_control.o(.data) for ERR_STOP
    pid_control.o(i.averag_gyro_OUT_X) refers to fadd.o(.text) for __aeabi_fadd
    pid_control.o(i.averag_gyro_OUT_X) refers to f2d.o(.text) for __aeabi_f2d
    pid_control.o(i.averag_gyro_OUT_X) refers to ddiv.o(.text) for __aeabi_ddiv
    pid_control.o(i.averag_gyro_OUT_X) refers to d2f.o(.text) for __aeabi_d2f
    pid_control.o(i.averag_gyro_OUT_X) refers to pid_control.o(.data) for numOUTG_roll
    pid_control.o(i.averag_gyro_OUT_X) refers to pid_control.o(.bss) for last_value_OUTX
    pid_control.o(i.averag_gyro_OUT_Y) refers to fadd.o(.text) for __aeabi_fadd
    pid_control.o(i.averag_gyro_OUT_Y) refers to f2d.o(.text) for __aeabi_f2d
    pid_control.o(i.averag_gyro_OUT_Y) refers to ddiv.o(.text) for __aeabi_ddiv
    pid_control.o(i.averag_gyro_OUT_Y) refers to d2f.o(.text) for __aeabi_d2f
    pid_control.o(i.averag_gyro_OUT_Y) refers to pid_control.o(.data) for numOUTG
    pid_control.o(i.averag_gyro_OUT_Y) refers to pid_control.o(.bss) for last_value_OUTY
    pid_control.o(i.averag_gyro_OUT_Z) refers to fadd.o(.text) for __aeabi_fadd
    pid_control.o(i.averag_gyro_OUT_Z) refers to f2d.o(.text) for __aeabi_f2d
    pid_control.o(i.averag_gyro_OUT_Z) refers to ddiv.o(.text) for __aeabi_ddiv
    pid_control.o(i.averag_gyro_OUT_Z) refers to d2f.o(.text) for __aeabi_d2f
    pid_control.o(i.averag_gyro_OUT_Z) refers to pid_control.o(.data) for numYAWOUTG
    pid_control.o(i.averag_gyro_OUT_Z) refers to pid_control.o(.bss) for last_value_OUTZ
    pid_control.o(i.averag_gyro_X) refers to fadd.o(.text) for __aeabi_fadd
    pid_control.o(i.averag_gyro_X) refers to f2d.o(.text) for __aeabi_f2d
    pid_control.o(i.averag_gyro_X) refers to ddiv.o(.text) for __aeabi_ddiv
    pid_control.o(i.averag_gyro_X) refers to d2f.o(.text) for __aeabi_d2f
    pid_control.o(i.averag_gyro_X) refers to pid_control.o(.data) for numG_roll
    pid_control.o(i.averag_gyro_X) refers to pid_control.o(.bss) for last_value_X
    pid_control.o(i.averag_gyro_Y) refers to fadd.o(.text) for __aeabi_fadd
    pid_control.o(i.averag_gyro_Y) refers to f2d.o(.text) for __aeabi_f2d
    pid_control.o(i.averag_gyro_Y) refers to ddiv.o(.text) for __aeabi_ddiv
    pid_control.o(i.averag_gyro_Y) refers to d2f.o(.text) for __aeabi_d2f
    pid_control.o(i.averag_gyro_Y) refers to pid_control.o(.data) for numG
    pid_control.o(i.averag_gyro_Y) refers to pid_control.o(.bss) for last_value_Y
    pid_control.o(i.averag_gyro_Z) refers to fadd.o(.text) for __aeabi_fadd
    pid_control.o(i.averag_gyro_Z) refers to f2d.o(.text) for __aeabi_f2d
    pid_control.o(i.averag_gyro_Z) refers to ddiv.o(.text) for __aeabi_ddiv
    pid_control.o(i.averag_gyro_Z) refers to d2f.o(.text) for __aeabi_d2f
    pid_control.o(i.averag_gyro_Z) refers to pid_control.o(.data) for numG_YAW
    pid_control.o(i.averag_gyro_Z) refers to pid_control.o(.bss) for last_value_Z
    asin.o(i.__softfp_asin) refers (Special) to iusefp.o(.text) for __I$use$fp
    asin.o(i.__softfp_asin) refers to asin.o(i.asin) for asin
    asin.o(i.asin) refers (Special) to iusefp.o(.text) for __I$use$fp
    asin.o(i.asin) refers to dunder.o(i.__mathlib_dbl_infnan) for __mathlib_dbl_infnan
    asin.o(i.asin) refers to dmul.o(.text) for __aeabi_dmul
    asin.o(i.asin) refers to dadd.o(.text) for __aeabi_dadd
    asin.o(i.asin) refers to errno.o(i.__set_errno) for __set_errno
    asin.o(i.asin) refers to dunder.o(i.__mathlib_dbl_invalid) for __mathlib_dbl_invalid
    asin.o(i.asin) refers to fpclassify.o(i.__ARM_fpclassify) for __ARM_fpclassify
    asin.o(i.asin) refers to dunder.o(i.__mathlib_dbl_underflow) for __mathlib_dbl_underflow
    asin.o(i.asin) refers to poly.o(i.__kernel_poly) for __kernel_poly
    asin.o(i.asin) refers to ddiv.o(.text) for __aeabi_ddiv
    asin.o(i.asin) refers to dscalb.o(.text) for __ARM_scalbn
    asin.o(i.asin) refers to sqrt.o(i.sqrt) for sqrt
    asin.o(i.asin) refers to asin.o(.constdata) for .constdata
    asin.o(.constdata) refers (Special) to iusefp.o(.text) for __I$use$fp
    asin_x.o(i.____softfp_asin$lsc) refers (Special) to iusefp.o(.text) for __I$use$fp
    asin_x.o(i.____softfp_asin$lsc) refers to asin_x.o(i.__asin$lsc) for __asin$lsc
    asin_x.o(i.__asin$lsc) refers (Special) to iusefp.o(.text) for __I$use$fp
    asin_x.o(i.__asin$lsc) refers to dunder.o(i.__mathlib_dbl_infnan) for __mathlib_dbl_infnan
    asin_x.o(i.__asin$lsc) refers to dmul.o(.text) for __aeabi_dmul
    asin_x.o(i.__asin$lsc) refers to dadd.o(.text) for __aeabi_dadd
    asin_x.o(i.__asin$lsc) refers to errno.o(i.__set_errno) for __set_errno
    asin_x.o(i.__asin$lsc) refers to poly.o(i.__kernel_poly) for __kernel_poly
    asin_x.o(i.__asin$lsc) refers to ddiv.o(.text) for __aeabi_ddiv
    asin_x.o(i.__asin$lsc) refers to dscalb.o(.text) for __ARM_scalbn
    asin_x.o(i.__asin$lsc) refers to sqrt.o(i.sqrt) for sqrt
    asin_x.o(i.__asin$lsc) refers to asin_x.o(.constdata) for .constdata
    asin_x.o(.constdata) refers (Special) to iusefp.o(.text) for __I$use$fp
    atan.o(i.__softfp_atan) refers (Special) to iusefp.o(.text) for __I$use$fp
    atan.o(i.__softfp_atan) refers to atan.o(i.atan) for atan
    atan.o(i.atan) refers (Special) to iusefp.o(.text) for __I$use$fp
    atan.o(i.atan) refers to dunder.o(i.__mathlib_dbl_infnan) for __mathlib_dbl_infnan
    atan.o(i.atan) refers to fpclassify.o(i.__ARM_fpclassify) for __ARM_fpclassify
    atan.o(i.atan) refers to dunder.o(i.__mathlib_dbl_underflow) for __mathlib_dbl_underflow
    atan.o(i.atan) refers to dadd.o(.text) for __aeabi_dadd
    atan.o(i.atan) refers to dscalb.o(.text) for __ARM_scalbn
    atan.o(i.atan) refers to ddiv.o(.text) for __aeabi_ddiv
    atan.o(i.atan) refers to dmul.o(.text) for __aeabi_dmul
    atan.o(i.atan) refers to poly.o(i.__kernel_poly) for __kernel_poly
    atan.o(i.atan) refers to atan.o(.constdata) for .constdata
    atan.o(.constdata) refers (Special) to iusefp.o(.text) for __I$use$fp
    atan_x.o(i.____softfp_atan$lsc) refers (Special) to iusefp.o(.text) for __I$use$fp
    atan_x.o(i.____softfp_atan$lsc) refers to atan_x.o(i.__atan$lsc) for __atan$lsc
    atan_x.o(i.__atan$lsc) refers (Special) to iusefp.o(.text) for __I$use$fp
    atan_x.o(i.__atan$lsc) refers to dunder.o(i.__mathlib_dbl_infnan) for __mathlib_dbl_infnan
    atan_x.o(i.__atan$lsc) refers to dadd.o(.text) for __aeabi_dadd
    atan_x.o(i.__atan$lsc) refers to dscalb.o(.text) for __ARM_scalbn
    atan_x.o(i.__atan$lsc) refers to ddiv.o(.text) for __aeabi_ddiv
    atan_x.o(i.__atan$lsc) refers to dmul.o(.text) for __aeabi_dmul
    atan_x.o(i.__atan$lsc) refers to poly.o(i.__kernel_poly) for __kernel_poly
    atan_x.o(i.__atan$lsc) refers to atan_x.o(.constdata) for .constdata
    atan_x.o(.constdata) refers (Special) to iusefp.o(.text) for __I$use$fp
    atan2.o(i.__softfp_atan2) refers (Special) to iusefp.o(.text) for __I$use$fp
    atan2.o(i.__softfp_atan2) refers to atan2.o(i.atan2) for atan2
    atan2.o(i.atan2) refers (Special) to iusefp.o(.text) for __I$use$fp
    atan2.o(i.atan2) refers to dunder.o(i.__mathlib_dbl_infnan2) for __mathlib_dbl_infnan2
    atan2.o(i.atan2) refers to atan.o(i.atan) for atan
    atan2.o(i.atan2) refers to ddiv.o(.text) for __aeabi_ddiv
    atan2.o(i.atan2) refers to dadd.o(.text) for __aeabi_dsub
    atan2.o(i.atan2) refers to qnan.o(.constdata) for __mathlib_zero
    atan2_x.o(i.____softfp_atan2$lsc) refers (Special) to iusefp.o(.text) for __I$use$fp
    atan2_x.o(i.____softfp_atan2$lsc) refers to atan2_x.o(i.__atan2$lsc) for __atan2$lsc
    atan2_x.o(i.__atan2$lsc) refers (Special) to iusefp.o(.text) for __I$use$fp
    atan2_x.o(i.__atan2$lsc) refers to dunder.o(i.__mathlib_dbl_infnan2) for __mathlib_dbl_infnan2
    atan2_x.o(i.__atan2$lsc) refers to atan.o(i.atan) for atan
    atan2_x.o(i.__atan2$lsc) refers to errno.o(i.__set_errno) for __set_errno
    atan2_x.o(i.__atan2$lsc) refers to ddiv.o(.text) for __aeabi_ddiv
    atan2_x.o(i.__atan2$lsc) refers to dadd.o(.text) for __aeabi_dsub
    atan2_x.o(i.__atan2$lsc) refers to qnan.o(.constdata) for __mathlib_zero
    cos.o(i.__softfp_cos) refers (Special) to iusefp.o(.text) for __I$use$fp
    cos.o(i.__softfp_cos) refers to cos.o(i.cos) for cos
    cos.o(i.cos) refers (Special) to iusefp.o(.text) for __I$use$fp
    cos.o(i.cos) refers to errno.o(i.__set_errno) for __set_errno
    cos.o(i.cos) refers to dunder.o(i.__mathlib_dbl_invalid) for __mathlib_dbl_invalid
    cos.o(i.cos) refers to dunder.o(i.__mathlib_dbl_infnan) for __mathlib_dbl_infnan
    cos.o(i.cos) refers to rred.o(i.__ieee754_rem_pio2) for __ieee754_rem_pio2
    cos.o(i.cos) refers to sin_i.o(i.__kernel_sin) for __kernel_sin
    cos.o(i.cos) refers to cos_i.o(i.__kernel_cos) for __kernel_cos
    cos_x.o(i.____softfp_cos$lsc) refers (Special) to iusefp.o(.text) for __I$use$fp
    cos_x.o(i.____softfp_cos$lsc) refers to cos_x.o(i.__cos$lsc) for __cos$lsc
    cos_x.o(i.__cos$lsc) refers (Special) to iusefp.o(.text) for __I$use$fp
    cos_x.o(i.__cos$lsc) refers to errno.o(i.__set_errno) for __set_errno
    cos_x.o(i.__cos$lsc) refers to dunder.o(i.__mathlib_dbl_infnan) for __mathlib_dbl_infnan
    cos_x.o(i.__cos$lsc) refers to rred.o(i.__ieee754_rem_pio2) for __ieee754_rem_pio2
    cos_x.o(i.__cos$lsc) refers to sin_i.o(i.__kernel_sin) for __kernel_sin
    cos_x.o(i.__cos$lsc) refers to cos_i.o(i.__kernel_cos) for __kernel_cos
    sin.o(i.__softfp_sin) refers (Special) to iusefp.o(.text) for __I$use$fp
    sin.o(i.__softfp_sin) refers to sin.o(i.sin) for sin
    sin.o(i.sin) refers (Special) to iusefp.o(.text) for __I$use$fp
    sin.o(i.sin) refers to errno.o(i.__set_errno) for __set_errno
    sin.o(i.sin) refers to dunder.o(i.__mathlib_dbl_invalid) for __mathlib_dbl_invalid
    sin.o(i.sin) refers to dunder.o(i.__mathlib_dbl_infnan) for __mathlib_dbl_infnan
    sin.o(i.sin) refers to rred.o(i.__ieee754_rem_pio2) for __ieee754_rem_pio2
    sin.o(i.sin) refers to cos_i.o(i.__kernel_cos) for __kernel_cos
    sin.o(i.sin) refers to sin_i.o(i.__kernel_sin) for __kernel_sin
    sin_x.o(i.____softfp_sin$lsc) refers (Special) to iusefp.o(.text) for __I$use$fp
    sin_x.o(i.____softfp_sin$lsc) refers to sin_x.o(i.__sin$lsc) for __sin$lsc
    sin_x.o(i.__sin$lsc) refers (Special) to iusefp.o(.text) for __I$use$fp
    sin_x.o(i.__sin$lsc) refers to errno.o(i.__set_errno) for __set_errno
    sin_x.o(i.__sin$lsc) refers to dunder.o(i.__mathlib_dbl_infnan) for __mathlib_dbl_infnan
    sin_x.o(i.__sin$lsc) refers to rred.o(i.__ieee754_rem_pio2) for __ieee754_rem_pio2
    sin_x.o(i.__sin$lsc) refers to cos_i.o(i.__kernel_cos) for __kernel_cos
    sin_x.o(i.__sin$lsc) refers to sin_i.o(i.__kernel_sin) for __kernel_sin
    sqrt.o(i.__softfp_sqrt) refers (Special) to iusefp.o(.text) for __I$use$fp
    sqrt.o(i.__softfp_sqrt) refers to dsqrt.o(.text) for _dsqrt
    sqrt.o(i.__softfp_sqrt) refers to errno.o(i.__set_errno) for __set_errno
    sqrt.o(i.sqrt) refers (Special) to iusefp.o(.text) for __I$use$fp
    sqrt.o(i.sqrt) refers to dsqrt.o(.text) for _dsqrt
    sqrt.o(i.sqrt) refers to errno.o(i.__set_errno) for __set_errno
    sqrt_x.o(i.____softfp_sqrt$lsc) refers (Special) to iusefp.o(.text) for __I$use$fp
    sqrt_x.o(i.____softfp_sqrt$lsc) refers to cdcmple.o(.text) for __aeabi_cdcmple
    sqrt_x.o(i.____softfp_sqrt$lsc) refers to errno.o(i.__set_errno) for __set_errno
    sqrt_x.o(i.____softfp_sqrt$lsc) refers to dsqrt.o(.text) for _dsqrt
    sqrt_x.o(i.__sqrt$lsc) refers (Special) to iusefp.o(.text) for __I$use$fp
    sqrt_x.o(i.__sqrt$lsc) refers to cdcmple.o(.text) for __aeabi_cdcmple
    sqrt_x.o(i.__sqrt$lsc) refers to errno.o(i.__set_errno) for __set_errno
    sqrt_x.o(i.__sqrt$lsc) refers to dsqrt.o(.text) for _dsqrt
    sqrtf.o(i.__softfp_sqrtf) refers (Special) to iusefp.o(.text) for __I$use$fp
    sqrtf.o(i.__softfp_sqrtf) refers to fsqrt.o(.text) for _fsqrt
    sqrtf.o(i.__softfp_sqrtf) refers to errno.o(i.__set_errno) for __set_errno
    sqrtf.o(i.sqrtf) refers (Special) to iusefp.o(.text) for __I$use$fp
    sqrtf.o(i.sqrtf) refers to fsqrt.o(.text) for _fsqrt
    sqrtf.o(i.sqrtf) refers to errno.o(i.__set_errno) for __set_errno
    sqrtf_x.o(i.____softfp_sqrtf$lsc) refers (Special) to iusefp.o(.text) for __I$use$fp
    sqrtf_x.o(i.____softfp_sqrtf$lsc) refers to errno.o(i.__set_errno) for __set_errno
    sqrtf_x.o(i.____softfp_sqrtf$lsc) refers to fsqrt.o(.text) for _fsqrt
    sqrtf_x.o(i.__sqrtf$lsc) refers (Special) to iusefp.o(.text) for __I$use$fp
    sqrtf_x.o(i.__sqrtf$lsc) refers to errno.o(i.__set_errno) for __set_errno
    sqrtf_x.o(i.__sqrtf$lsc) refers to fsqrt.o(.text) for _fsqrt
    entry.o(.ARM.Collect$$$$00000000) refers (Special) to entry10a.o(.ARM.Collect$$$$0000000D) for __rt_final_cpp
    entry.o(.ARM.Collect$$$$00000000) refers (Special) to entry11a.o(.ARM.Collect$$$$0000000F) for __rt_final_exit
    entry.o(.ARM.Collect$$$$00000000) refers (Special) to entry7b.o(.ARM.Collect$$$$00000008) for _main_clock
    entry.o(.ARM.Collect$$$$00000000) refers (Special) to entry8b.o(.ARM.Collect$$$$0000000A) for _main_cpp_init
    entry.o(.ARM.Collect$$$$00000000) refers (Special) to entry9a.o(.ARM.Collect$$$$0000000B) for _main_init
    entry.o(.ARM.Collect$$$$00000000) refers (Special) to entry5.o(.ARM.Collect$$$$00000004) for _main_scatterload
    entry.o(.ARM.Collect$$$$00000000) refers (Special) to entry2.o(.ARM.Collect$$$$00000001) for _main_stk
    printfb.o(i.__0fprintf$bare) refers to printfb.o(i._printf_core) for _printf_core
    printfb.o(i.__0fprintf$bare) refers to gpio_config.o(i.fputc) for fputc
    printfb.o(i.__0printf$bare) refers to printfb.o(i._printf_core) for _printf_core
    printfb.o(i.__0printf$bare) refers to gpio_config.o(i.fputc) for fputc
    printfb.o(i.__0printf$bare) refers to stdout.o(.data) for __stdout
    printfb.o(i.__0snprintf$bare) refers to printfb.o(i._printf_core) for _printf_core
    printfb.o(i.__0snprintf$bare) refers to printfb.o(i._snputc) for _snputc
    printfb.o(i.__0sprintf$bare) refers to printfb.o(i._printf_core) for _printf_core
    printfb.o(i.__0sprintf$bare) refers to printfb.o(i._sputc) for _sputc
    printfb.o(i.__0vfprintf$bare) refers to printfb.o(i._printf_core) for _printf_core
    printfb.o(i.__0vfprintf$bare) refers to gpio_config.o(i.fputc) for fputc
    printfb.o(i.__0vprintf$bare) refers to printfb.o(i._printf_core) for _printf_core
    printfb.o(i.__0vprintf$bare) refers to gpio_config.o(i.fputc) for fputc
    printfb.o(i.__0vprintf$bare) refers to stdout.o(.data) for __stdout
    printfb.o(i.__0vsnprintf$bare) refers to printfb.o(i._printf_core) for _printf_core
    printfb.o(i.__0vsnprintf$bare) refers to printfb.o(i._snputc) for _snputc
    printfb.o(i.__0vsprintf$bare) refers to printfb.o(i._printf_core) for _printf_core
    printfb.o(i.__0vsprintf$bare) refers to printfb.o(i._sputc) for _sputc
    printf0.o(i.__0fprintf$0) refers to printf0.o(i._printf_core) for _printf_core
    printf0.o(i.__0fprintf$0) refers to gpio_config.o(i.fputc) for fputc
    printf0.o(i.__0printf$0) refers to printf0.o(i._printf_core) for _printf_core
    printf0.o(i.__0printf$0) refers to gpio_config.o(i.fputc) for fputc
    printf0.o(i.__0printf$0) refers to stdout.o(.data) for __stdout
    printf0.o(i.__0snprintf$0) refers to printf0.o(i._printf_core) for _printf_core
    printf0.o(i.__0snprintf$0) refers to printf0.o(i._snputc) for _snputc
    printf0.o(i.__0sprintf$0) refers to printf0.o(i._printf_core) for _printf_core
    printf0.o(i.__0sprintf$0) refers to printf0.o(i._sputc) for _sputc
    printf0.o(i.__0vfprintf$0) refers to printf0.o(i._printf_core) for _printf_core
    printf0.o(i.__0vfprintf$0) refers to gpio_config.o(i.fputc) for fputc
    printf0.o(i.__0vprintf$0) refers to printf0.o(i._printf_core) for _printf_core
    printf0.o(i.__0vprintf$0) refers to gpio_config.o(i.fputc) for fputc
    printf0.o(i.__0vprintf$0) refers to stdout.o(.data) for __stdout
    printf0.o(i.__0vsnprintf$0) refers to printf0.o(i._printf_core) for _printf_core
    printf0.o(i.__0vsnprintf$0) refers to printf0.o(i._snputc) for _snputc
    printf0.o(i.__0vsprintf$0) refers to printf0.o(i._printf_core) for _printf_core
    printf0.o(i.__0vsprintf$0) refers to printf0.o(i._sputc) for _sputc
    printf1.o(i.__0fprintf$1) refers to printf1.o(i._printf_core) for _printf_core
    printf1.o(i.__0fprintf$1) refers to gpio_config.o(i.fputc) for fputc
    printf1.o(i.__0printf$1) refers to printf1.o(i._printf_core) for _printf_core
    printf1.o(i.__0printf$1) refers to gpio_config.o(i.fputc) for fputc
    printf1.o(i.__0printf$1) refers to stdout.o(.data) for __stdout
    printf1.o(i.__0snprintf$1) refers to printf1.o(i._printf_core) for _printf_core
    printf1.o(i.__0snprintf$1) refers to printf1.o(i._snputc) for _snputc
    printf1.o(i.__0sprintf$1) refers to printf1.o(i._printf_core) for _printf_core
    printf1.o(i.__0sprintf$1) refers to printf1.o(i._sputc) for _sputc
    printf1.o(i.__0vfprintf$1) refers to printf1.o(i._printf_core) for _printf_core
    printf1.o(i.__0vfprintf$1) refers to gpio_config.o(i.fputc) for fputc
    printf1.o(i.__0vprintf$1) refers to printf1.o(i._printf_core) for _printf_core
    printf1.o(i.__0vprintf$1) refers to gpio_config.o(i.fputc) for fputc
    printf1.o(i.__0vprintf$1) refers to stdout.o(.data) for __stdout
    printf1.o(i.__0vsnprintf$1) refers to printf1.o(i._printf_core) for _printf_core
    printf1.o(i.__0vsnprintf$1) refers to printf1.o(i._snputc) for _snputc
    printf1.o(i.__0vsprintf$1) refers to printf1.o(i._printf_core) for _printf_core
    printf1.o(i.__0vsprintf$1) refers to printf1.o(i._sputc) for _sputc
    printf1.o(i._printf_core) refers to uidiv.o(.text) for __aeabi_uidivmod
    printf2.o(i.__0fprintf$2) refers to printf2.o(i._printf_core) for _printf_core
    printf2.o(i.__0fprintf$2) refers to gpio_config.o(i.fputc) for fputc
    printf2.o(i.__0printf$2) refers to printf2.o(i._printf_core) for _printf_core
    printf2.o(i.__0printf$2) refers to gpio_config.o(i.fputc) for fputc
    printf2.o(i.__0printf$2) refers to stdout.o(.data) for __stdout
    printf2.o(i.__0snprintf$2) refers to printf2.o(i._printf_core) for _printf_core
    printf2.o(i.__0snprintf$2) refers to printf2.o(i._snputc) for _snputc
    printf2.o(i.__0sprintf$2) refers to printf2.o(i._printf_core) for _printf_core
    printf2.o(i.__0sprintf$2) refers to printf2.o(i._sputc) for _sputc
    printf2.o(i.__0vfprintf$2) refers to printf2.o(i._printf_core) for _printf_core
    printf2.o(i.__0vfprintf$2) refers to gpio_config.o(i.fputc) for fputc
    printf2.o(i.__0vprintf$2) refers to printf2.o(i._printf_core) for _printf_core
    printf2.o(i.__0vprintf$2) refers to gpio_config.o(i.fputc) for fputc
    printf2.o(i.__0vprintf$2) refers to stdout.o(.data) for __stdout
    printf2.o(i.__0vsnprintf$2) refers to printf2.o(i._printf_core) for _printf_core
    printf2.o(i.__0vsnprintf$2) refers to printf2.o(i._snputc) for _snputc
    printf2.o(i.__0vsprintf$2) refers to printf2.o(i._printf_core) for _printf_core
    printf2.o(i.__0vsprintf$2) refers to printf2.o(i._sputc) for _sputc
    printf3.o(i.__0fprintf$3) refers to printf3.o(i._printf_core) for _printf_core
    printf3.o(i.__0fprintf$3) refers to gpio_config.o(i.fputc) for fputc
    printf3.o(i.__0printf$3) refers to printf3.o(i._printf_core) for _printf_core
    printf3.o(i.__0printf$3) refers to gpio_config.o(i.fputc) for fputc
    printf3.o(i.__0printf$3) refers to stdout.o(.data) for __stdout
    printf3.o(i.__0snprintf$3) refers to printf3.o(i._printf_core) for _printf_core
    printf3.o(i.__0snprintf$3) refers to printf3.o(i._snputc) for _snputc
    printf3.o(i.__0sprintf$3) refers to printf3.o(i._printf_core) for _printf_core
    printf3.o(i.__0sprintf$3) refers to printf3.o(i._sputc) for _sputc
    printf3.o(i.__0vfprintf$3) refers to printf3.o(i._printf_core) for _printf_core
    printf3.o(i.__0vfprintf$3) refers to gpio_config.o(i.fputc) for fputc
    printf3.o(i.__0vprintf$3) refers to printf3.o(i._printf_core) for _printf_core
    printf3.o(i.__0vprintf$3) refers to gpio_config.o(i.fputc) for fputc
    printf3.o(i.__0vprintf$3) refers to stdout.o(.data) for __stdout
    printf3.o(i.__0vsnprintf$3) refers to printf3.o(i._printf_core) for _printf_core
    printf3.o(i.__0vsnprintf$3) refers to printf3.o(i._snputc) for _snputc
    printf3.o(i.__0vsprintf$3) refers to printf3.o(i._printf_core) for _printf_core
    printf3.o(i.__0vsprintf$3) refers to printf3.o(i._sputc) for _sputc
    printf3.o(i._printf_core) refers to uidiv.o(.text) for __aeabi_uidivmod
    printf4.o(i.__0fprintf$4) refers to printf4.o(i._printf_core) for _printf_core
    printf4.o(i.__0fprintf$4) refers to gpio_config.o(i.fputc) for fputc
    printf4.o(i.__0printf$4) refers to printf4.o(i._printf_core) for _printf_core
    printf4.o(i.__0printf$4) refers to gpio_config.o(i.fputc) for fputc
    printf4.o(i.__0printf$4) refers to stdout.o(.data) for __stdout
    printf4.o(i.__0snprintf$4) refers to printf4.o(i._printf_core) for _printf_core
    printf4.o(i.__0snprintf$4) refers to printf4.o(i._snputc) for _snputc
    printf4.o(i.__0sprintf$4) refers to printf4.o(i._printf_core) for _printf_core
    printf4.o(i.__0sprintf$4) refers to printf4.o(i._sputc) for _sputc
    printf4.o(i.__0vfprintf$4) refers to printf4.o(i._printf_core) for _printf_core
    printf4.o(i.__0vfprintf$4) refers to gpio_config.o(i.fputc) for fputc
    printf4.o(i.__0vprintf$4) refers to printf4.o(i._printf_core) for _printf_core
    printf4.o(i.__0vprintf$4) refers to gpio_config.o(i.fputc) for fputc
    printf4.o(i.__0vprintf$4) refers to stdout.o(.data) for __stdout
    printf4.o(i.__0vsnprintf$4) refers to printf4.o(i._printf_core) for _printf_core
    printf4.o(i.__0vsnprintf$4) refers to printf4.o(i._snputc) for _snputc
    printf4.o(i.__0vsprintf$4) refers to printf4.o(i._printf_core) for _printf_core
    printf4.o(i.__0vsprintf$4) refers to printf4.o(i._sputc) for _sputc
    printf4.o(i._printf_core) refers to uldiv.o(.text) for __aeabi_uldivmod
    printf5.o(i.__0fprintf$5) refers to printf5.o(i._printf_core) for _printf_core
    printf5.o(i.__0fprintf$5) refers to gpio_config.o(i.fputc) for fputc
    printf5.o(i.__0printf$5) refers to printf5.o(i._printf_core) for _printf_core
    printf5.o(i.__0printf$5) refers to gpio_config.o(i.fputc) for fputc
    printf5.o(i.__0printf$5) refers to stdout.o(.data) for __stdout
    printf5.o(i.__0snprintf$5) refers to printf5.o(i._printf_core) for _printf_core
    printf5.o(i.__0snprintf$5) refers to printf5.o(i._snputc) for _snputc
    printf5.o(i.__0sprintf$5) refers to printf5.o(i._printf_core) for _printf_core
    printf5.o(i.__0sprintf$5) refers to printf5.o(i._sputc) for _sputc
    printf5.o(i.__0vfprintf$5) refers to printf5.o(i._printf_core) for _printf_core
    printf5.o(i.__0vfprintf$5) refers to gpio_config.o(i.fputc) for fputc
    printf5.o(i.__0vprintf$5) refers to printf5.o(i._printf_core) for _printf_core
    printf5.o(i.__0vprintf$5) refers to gpio_config.o(i.fputc) for fputc
    printf5.o(i.__0vprintf$5) refers to stdout.o(.data) for __stdout
    printf5.o(i.__0vsnprintf$5) refers to printf5.o(i._printf_core) for _printf_core
    printf5.o(i.__0vsnprintf$5) refers to printf5.o(i._snputc) for _snputc
    printf5.o(i.__0vsprintf$5) refers to printf5.o(i._printf_core) for _printf_core
    printf5.o(i.__0vsprintf$5) refers to printf5.o(i._sputc) for _sputc
    printf5.o(i._printf_core) refers to uldiv.o(.text) for __aeabi_uldivmod
    printf6.o(i.__0fprintf$6) refers to printf6.o(i._printf_core) for _printf_core
    printf6.o(i.__0fprintf$6) refers to gpio_config.o(i.fputc) for fputc
    printf6.o(i.__0printf$6) refers to printf6.o(i._printf_core) for _printf_core
    printf6.o(i.__0printf$6) refers to gpio_config.o(i.fputc) for fputc
    printf6.o(i.__0printf$6) refers to stdout.o(.data) for __stdout
    printf6.o(i.__0snprintf$6) refers to printf6.o(i._printf_core) for _printf_core
    printf6.o(i.__0snprintf$6) refers to printf6.o(i._snputc) for _snputc
    printf6.o(i.__0sprintf$6) refers to printf6.o(i._printf_core) for _printf_core
    printf6.o(i.__0sprintf$6) refers to printf6.o(i._sputc) for _sputc
    printf6.o(i.__0vfprintf$6) refers to printf6.o(i._printf_core) for _printf_core
    printf6.o(i.__0vfprintf$6) refers to gpio_config.o(i.fputc) for fputc
    printf6.o(i.__0vprintf$6) refers to printf6.o(i._printf_core) for _printf_core
    printf6.o(i.__0vprintf$6) refers to gpio_config.o(i.fputc) for fputc
    printf6.o(i.__0vprintf$6) refers to stdout.o(.data) for __stdout
    printf6.o(i.__0vsnprintf$6) refers to printf6.o(i._printf_core) for _printf_core
    printf6.o(i.__0vsnprintf$6) refers to printf6.o(i._snputc) for _snputc
    printf6.o(i.__0vsprintf$6) refers to printf6.o(i._printf_core) for _printf_core
    printf6.o(i.__0vsprintf$6) refers to printf6.o(i._sputc) for _sputc
    printf6.o(i._printf_core) refers to printf6.o(i._printf_pre_padding) for _printf_pre_padding
    printf6.o(i._printf_core) refers to uidiv.o(.text) for __aeabi_uidivmod
    printf6.o(i._printf_core) refers to printf6.o(i._printf_post_padding) for _printf_post_padding
    printf7.o(i.__0fprintf$7) refers to printf7.o(i._printf_core) for _printf_core
    printf7.o(i.__0fprintf$7) refers to gpio_config.o(i.fputc) for fputc
    printf7.o(i.__0printf$7) refers to printf7.o(i._printf_core) for _printf_core
    printf7.o(i.__0printf$7) refers to gpio_config.o(i.fputc) for fputc
    printf7.o(i.__0printf$7) refers to stdout.o(.data) for __stdout
    printf7.o(i.__0snprintf$7) refers to printf7.o(i._printf_core) for _printf_core
    printf7.o(i.__0snprintf$7) refers to printf7.o(i._snputc) for _snputc
    printf7.o(i.__0sprintf$7) refers to printf7.o(i._printf_core) for _printf_core
    printf7.o(i.__0sprintf$7) refers to printf7.o(i._sputc) for _sputc
    printf7.o(i.__0vfprintf$7) refers to printf7.o(i._printf_core) for _printf_core
    printf7.o(i.__0vfprintf$7) refers to gpio_config.o(i.fputc) for fputc
    printf7.o(i.__0vprintf$7) refers to printf7.o(i._printf_core) for _printf_core
    printf7.o(i.__0vprintf$7) refers to gpio_config.o(i.fputc) for fputc
    printf7.o(i.__0vprintf$7) refers to stdout.o(.data) for __stdout
    printf7.o(i.__0vsnprintf$7) refers to printf7.o(i._printf_core) for _printf_core
    printf7.o(i.__0vsnprintf$7) refers to printf7.o(i._snputc) for _snputc
    printf7.o(i.__0vsprintf$7) refers to printf7.o(i._printf_core) for _printf_core
    printf7.o(i.__0vsprintf$7) refers to printf7.o(i._sputc) for _sputc
    printf7.o(i._printf_core) refers to printf7.o(i._printf_pre_padding) for _printf_pre_padding
    printf7.o(i._printf_core) refers to uldiv.o(.text) for __aeabi_uldivmod
    printf7.o(i._printf_core) refers to printf7.o(i._printf_post_padding) for _printf_post_padding
    printf8.o(i.__0fprintf$8) refers to printf8.o(i._printf_core) for _printf_core
    printf8.o(i.__0fprintf$8) refers to gpio_config.o(i.fputc) for fputc
    printf8.o(i.__0printf$8) refers to printf8.o(i._printf_core) for _printf_core
    printf8.o(i.__0printf$8) refers to gpio_config.o(i.fputc) for fputc
    printf8.o(i.__0printf$8) refers to stdout.o(.data) for __stdout
    printf8.o(i.__0snprintf$8) refers to printf8.o(i._printf_core) for _printf_core
    printf8.o(i.__0snprintf$8) refers to printf8.o(i._snputc) for _snputc
    printf8.o(i.__0sprintf$8) refers to printf8.o(i._printf_core) for _printf_core
    printf8.o(i.__0sprintf$8) refers to printf8.o(i._sputc) for _sputc
    printf8.o(i.__0vfprintf$8) refers to printf8.o(i._printf_core) for _printf_core
    printf8.o(i.__0vfprintf$8) refers to gpio_config.o(i.fputc) for fputc
    printf8.o(i.__0vprintf$8) refers to printf8.o(i._printf_core) for _printf_core
    printf8.o(i.__0vprintf$8) refers to gpio_config.o(i.fputc) for fputc
    printf8.o(i.__0vprintf$8) refers to stdout.o(.data) for __stdout
    printf8.o(i.__0vsnprintf$8) refers to printf8.o(i._printf_core) for _printf_core
    printf8.o(i.__0vsnprintf$8) refers to printf8.o(i._snputc) for _snputc
    printf8.o(i.__0vsprintf$8) refers to printf8.o(i._printf_core) for _printf_core
    printf8.o(i.__0vsprintf$8) refers to printf8.o(i._sputc) for _sputc
    printf8.o(i._printf_core) refers to printf8.o(i._printf_pre_padding) for _printf_pre_padding
    printf8.o(i._printf_core) refers to uldiv.o(.text) for __aeabi_uldivmod
    printf8.o(i._printf_core) refers to printf8.o(i._printf_post_padding) for _printf_post_padding
    printfa.o(i.__0fprintf) refers (Special) to iusefp.o(.text) for __I$use$fp
    printfa.o(i.__0fprintf) refers to printfa.o(i._printf_core) for _printf_core
    printfa.o(i.__0fprintf) refers to gpio_config.o(i.fputc) for fputc
    printfa.o(i.__0printf) refers (Special) to iusefp.o(.text) for __I$use$fp
    printfa.o(i.__0printf) refers to printfa.o(i._printf_core) for _printf_core
    printfa.o(i.__0printf) refers to gpio_config.o(i.fputc) for fputc
    printfa.o(i.__0printf) refers to stdout.o(.data) for __stdout
    printfa.o(i.__0snprintf) refers (Special) to iusefp.o(.text) for __I$use$fp
    printfa.o(i.__0snprintf) refers to printfa.o(i._printf_core) for _printf_core
    printfa.o(i.__0snprintf) refers to printfa.o(i._snputc) for _snputc
    printfa.o(i.__0sprintf) refers (Special) to iusefp.o(.text) for __I$use$fp
    printfa.o(i.__0sprintf) refers to printfa.o(i._printf_core) for _printf_core
    printfa.o(i.__0sprintf) refers to printfa.o(i._sputc) for _sputc
    printfa.o(i.__0vfprintf) refers (Special) to iusefp.o(.text) for __I$use$fp
    printfa.o(i.__0vfprintf) refers to printfa.o(i._printf_core) for _printf_core
    printfa.o(i.__0vfprintf) refers to gpio_config.o(i.fputc) for fputc
    printfa.o(i.__0vprintf) refers (Special) to iusefp.o(.text) for __I$use$fp
    printfa.o(i.__0vprintf) refers to printfa.o(i._printf_core) for _printf_core
    printfa.o(i.__0vprintf) refers to gpio_config.o(i.fputc) for fputc
    printfa.o(i.__0vprintf) refers to stdout.o(.data) for __stdout
    printfa.o(i.__0vsnprintf) refers (Special) to iusefp.o(.text) for __I$use$fp
    printfa.o(i.__0vsnprintf) refers to printfa.o(i._printf_core) for _printf_core
    printfa.o(i.__0vsnprintf) refers to printfa.o(i._snputc) for _snputc
    printfa.o(i.__0vsprintf) refers (Special) to iusefp.o(.text) for __I$use$fp
    printfa.o(i.__0vsprintf) refers to printfa.o(i._printf_core) for _printf_core
    printfa.o(i.__0vsprintf) refers to printfa.o(i._sputc) for _sputc
    printfa.o(i._fp_digits) refers (Special) to iusefp.o(.text) for __I$use$fp
    printfa.o(i._fp_digits) refers to dmul.o(.text) for __aeabi_dmul
    printfa.o(i._fp_digits) refers to ddiv.o(.text) for __aeabi_ddiv
    printfa.o(i._fp_digits) refers to cdrcmple.o(.text) for __aeabi_cdrcmple
    printfa.o(i._fp_digits) refers to dadd.o(.text) for __aeabi_dadd
    printfa.o(i._fp_digits) refers to dfixul.o(.text) for __aeabi_d2ulz
    printfa.o(i._fp_digits) refers to uldiv.o(.text) for __aeabi_uldivmod
    printfa.o(i._printf_core) refers (Special) to iusefp.o(.text) for __I$use$fp
    printfa.o(i._printf_core) refers to printfa.o(i._printf_pre_padding) for _printf_pre_padding
    printfa.o(i._printf_core) refers to uldiv.o(.text) for __aeabi_uldivmod
    printfa.o(i._printf_core) refers to printfa.o(i._printf_post_padding) for _printf_post_padding
    printfa.o(i._printf_core) refers to printfa.o(i._fp_digits) for _fp_digits
    printfa.o(i._printf_core) refers to uidiv.o(.text) for __aeabi_uidivmod
    printfa.o(i._printf_post_padding) refers (Special) to iusefp.o(.text) for __I$use$fp
    printfa.o(i._printf_pre_padding) refers (Special) to iusefp.o(.text) for __I$use$fp
    printfa.o(i._snputc) refers (Special) to iusefp.o(.text) for __I$use$fp
    printfa.o(i._sputc) refers (Special) to iusefp.o(.text) for __I$use$fp
    fadd.o(.text) refers (Special) to iusefp.o(.text) for __I$use$fp
    fadd.o(.text) refers to fepilogue.o(.text) for _float_epilogue
    fmul.o(.text) refers (Special) to iusefp.o(.text) for __I$use$fp
    fdiv.o(.text) refers (Special) to iusefp.o(.text) for __I$use$fp
    fdiv.o(.text) refers to fepilogue.o(.text) for _float_round
    dadd.o(.text) refers (Special) to iusefp.o(.text) for __I$use$fp
    dadd.o(.text) refers to llshl.o(.text) for __aeabi_llsl
    dadd.o(.text) refers to llsshr.o(.text) for __aeabi_lasr
    dadd.o(.text) refers to depilogue.o(.text) for _double_epilogue
    dmul.o(.text) refers (Special) to iusefp.o(.text) for __I$use$fp
    dmul.o(.text) refers to depilogue.o(.text) for _double_epilogue
    ddiv.o(.text) refers (Special) to iusefp.o(.text) for __I$use$fp
    ddiv.o(.text) refers to depilogue.o(.text) for _double_round
    fflti.o(.text) refers (Special) to iusefp.o(.text) for __I$use$fp
    fflti.o(.text) refers to fepilogue.o(.text) for _float_epilogue
    ffltui.o(.text) refers (Special) to iusefp.o(.text) for __I$use$fp
    ffltui.o(.text) refers to fepilogue.o(.text) for _float_epilogue
    dflti.o(.text) refers (Special) to iusefp.o(.text) for __I$use$fp
    dflti.o(.text) refers to depilogue.o(.text) for _double_epilogue
    dfltui.o(.text) refers (Special) to iusefp.o(.text) for __I$use$fp
    dfltui.o(.text) refers to depilogue.o(.text) for _double_epilogue
    ffixi.o(.text) refers (Special) to iusefp.o(.text) for __I$use$fp
    ffixui.o(.text) refers (Special) to iusefp.o(.text) for __I$use$fp
    dfixi.o(.text) refers (Special) to iusefp.o(.text) for __I$use$fp
    dfixi.o(.text) refers to llushr.o(.text) for __aeabi_llsr
    dfixui.o(.text) refers (Special) to iusefp.o(.text) for __I$use$fp
    dfixui.o(.text) refers to llushr.o(.text) for __aeabi_llsr
    f2d.o(.text) refers (Special) to iusefp.o(.text) for __I$use$fp
    cdcmple.o(.text) refers (Special) to iusefp.o(.text) for __I$use$fp
    cdrcmple.o(.text) refers (Special) to iusefp.o(.text) for __I$use$fp
    d2f.o(.text) refers (Special) to iusefp.o(.text) for __I$use$fp
    d2f.o(.text) refers to fepilogue.o(.text) for _float_round
    cfcmple.o(.text) refers (Special) to iusefp.o(.text) for __I$use$fp
    cfrcmple.o(.text) refers (Special) to iusefp.o(.text) for __I$use$fp
    cos_i.o(i.__kernel_cos) refers (Special) to iusefp.o(.text) for __I$use$fp
    cos_i.o(i.__kernel_cos) refers to dfixi.o(.text) for __aeabi_d2iz
    cos_i.o(i.__kernel_cos) refers to dmul.o(.text) for __aeabi_dmul
    cos_i.o(i.__kernel_cos) refers to poly.o(i.__kernel_poly) for __kernel_poly
    cos_i.o(i.__kernel_cos) refers to dadd.o(.text) for __aeabi_dsub
    cos_i.o(i.__kernel_cos) refers to dscalb.o(.text) for __ARM_scalbn
    cos_i.o(i.__kernel_cos) refers to cos_i.o(.constdata) for .constdata
    cos_i.o(.constdata) refers (Special) to iusefp.o(.text) for __I$use$fp
    dunder.o(i.__mathlib_dbl_divzero) refers to ddiv.o(.text) for __aeabi_ddiv
    dunder.o(i.__mathlib_dbl_infnan) refers to dscalb.o(.text) for __ARM_scalbn
    dunder.o(i.__mathlib_dbl_infnan2) refers to dadd.o(.text) for __aeabi_dadd
    dunder.o(i.__mathlib_dbl_invalid) refers to ddiv.o(.text) for __aeabi_ddiv
    dunder.o(i.__mathlib_dbl_overflow) refers to dscalb.o(.text) for __ARM_scalbn
    dunder.o(i.__mathlib_dbl_posinfnan) refers to dmul.o(.text) for __aeabi_dmul
    dunder.o(i.__mathlib_dbl_underflow) refers to dscalb.o(.text) for __ARM_scalbn
    fpclassify.o(i.__ARM_fpclassify) refers (Special) to iusefp.o(.text) for __I$use$fp
    poly.o(i.__kernel_poly) refers (Special) to iusefp.o(.text) for __I$use$fp
    poly.o(i.__kernel_poly) refers to dmul.o(.text) for __aeabi_dmul
    poly.o(i.__kernel_poly) refers to dadd.o(.text) for __aeabi_dadd
    qnan.o(.constdata) refers (Special) to iusefp.o(.text) for __I$use$fp
    rred.o(i.__ieee754_rem_pio2) refers (Special) to iusefp.o(.text) for __I$use$fp
    rred.o(i.__ieee754_rem_pio2) refers to dadd.o(.text) for __aeabi_dsub
    rred.o(i.__ieee754_rem_pio2) refers to dmul.o(.text) for __aeabi_dmul
    rred.o(i.__ieee754_rem_pio2) refers to dfixi.o(.text) for __aeabi_d2iz
    rred.o(i.__ieee754_rem_pio2) refers to dflti.o(.text) for __aeabi_i2d
    rred.o(i.__ieee754_rem_pio2) refers to dfltui.o(.text) for __aeabi_ui2d
    rred.o(i.__ieee754_rem_pio2) refers to dscalb.o(.text) for __ARM_scalbn
    rred.o(i.__ieee754_rem_pio2) refers to rred.o(.constdata) for .constdata
    rred.o(i.__use_accurate_range_reduction) refers (Special) to iusefp.o(.text) for __I$use$fp
    rred.o(.constdata) refers (Special) to iusefp.o(.text) for __I$use$fp
    sin_i.o(i.__kernel_sin) refers (Special) to iusefp.o(.text) for __I$use$fp
    sin_i.o(i.__kernel_sin) refers to fpclassify.o(i.__ARM_fpclassify) for __ARM_fpclassify
    sin_i.o(i.__kernel_sin) refers to dunder.o(i.__mathlib_dbl_underflow) for __mathlib_dbl_underflow
    sin_i.o(i.__kernel_sin) refers to dmul.o(.text) for __aeabi_dmul
    sin_i.o(i.__kernel_sin) refers to poly.o(i.__kernel_poly) for __kernel_poly
    sin_i.o(i.__kernel_sin) refers to dscalb.o(.text) for __ARM_scalbn
    sin_i.o(i.__kernel_sin) refers to dadd.o(.text) for __aeabi_dsub
    sin_i.o(i.__kernel_sin) refers to sin_i.o(.constdata) for .constdata
    sin_i.o(.constdata) refers (Special) to iusefp.o(.text) for __I$use$fp
    sin_i_x.o(i.____kernel_sin$lsc) refers (Special) to iusefp.o(.text) for __I$use$fp
    sin_i_x.o(i.____kernel_sin$lsc) refers to dmul.o(.text) for __aeabi_dmul
    sin_i_x.o(i.____kernel_sin$lsc) refers to poly.o(i.__kernel_poly) for __kernel_poly
    sin_i_x.o(i.____kernel_sin$lsc) refers to dscalb.o(.text) for __ARM_scalbn
    sin_i_x.o(i.____kernel_sin$lsc) refers to dadd.o(.text) for __aeabi_dsub
    sin_i_x.o(i.____kernel_sin$lsc) refers to sin_i_x.o(.constdata) for .constdata
    sin_i_x.o(.constdata) refers (Special) to iusefp.o(.text) for __I$use$fp
    entry2.o(.ARM.Collect$$$$00000001) refers to entry2.o(.ARM.Collect$$$$00002712) for __lit__00000000
    entry2.o(.ARM.Collect$$$$00002712) refers to startup_stm32f10x_hd.o(STACK) for __initial_sp
    entry2.o(__vectab_stack_and_reset_area) refers to startup_stm32f10x_hd.o(STACK) for __initial_sp
    entry2.o(__vectab_stack_and_reset_area) refers to entry.o(.ARM.Collect$$$$00000000) for __main
    entry5.o(.ARM.Collect$$$$00000004) refers to init.o(.text) for __scatterload
    entry9a.o(.ARM.Collect$$$$0000000B) refers to main.o(i.main) for main
    entry9b.o(.ARM.Collect$$$$0000000C) refers to main.o(i.main) for main
    uldiv.o(.text) refers to llushr.o(.text) for __aeabi_llsr
    uldiv.o(.text) refers to llshl.o(.text) for __aeabi_llsl
    errno.o(i.__aeabi_errno_addr) refers to errno.o(.data) for .data
    errno.o(i.__read_errno) refers to errno.o(.data) for .data
    errno.o(i.__set_errno) refers to errno.o(.data) for .data
    fsqrt.o(.text) refers to fepilogue.o(.text) for _float_round
    depilogue.o(.text) refers to llshl.o(.text) for __aeabi_llsl
    depilogue.o(.text) refers to llushr.o(.text) for __aeabi_llsr
    dsqrt.o(.text) refers to llushr.o(.text) for __aeabi_llsr
    dsqrt.o(.text) refers to depilogue.o(.text) for _double_round
    dfixul.o(.text) refers to llushr.o(.text) for __aeabi_llsr
    dfixul.o(.text) refers to llshl.o(.text) for __aeabi_llsl
    init.o(.text) refers to entry5.o(.ARM.Collect$$$$00000004) for __main_after_scatterload


==============================================================================

Removing Unused input sections from the image.

    Removing startup_stm32f10x_hd.o(HEAP), (512 bytes).
    Removing core_cm3.o(.emb_text), (32 bytes).
    Removing system_stm32f10x.o(i.SystemCoreClockUpdate), (164 bytes).
    Removing misc.o(i.NVIC_SetVectorTable), (20 bytes).
    Removing misc.o(i.NVIC_SystemLPConfig), (32 bytes).
    Removing misc.o(i.SysTick_CLKSourceConfig), (40 bytes).
    Removing stm32f10x_adc.o(i.ADC_AnalogWatchdogCmd), (20 bytes).
    Removing stm32f10x_adc.o(i.ADC_AnalogWatchdogSingleChannelConfig), (16 bytes).
    Removing stm32f10x_adc.o(i.ADC_AnalogWatchdogThresholdsConfig), (6 bytes).
    Removing stm32f10x_adc.o(i.ADC_AutoInjectedConvCmd), (22 bytes).
    Removing stm32f10x_adc.o(i.ADC_ClearFlag), (6 bytes).
    Removing stm32f10x_adc.o(i.ADC_ClearITPendingBit), (10 bytes).
    Removing stm32f10x_adc.o(i.ADC_DeInit), (92 bytes).
    Removing stm32f10x_adc.o(i.ADC_DiscModeChannelCountConfig), (24 bytes).
    Removing stm32f10x_adc.o(i.ADC_DiscModeCmd), (22 bytes).
    Removing stm32f10x_adc.o(i.ADC_ExternalTrigConvCmd), (22 bytes).
    Removing stm32f10x_adc.o(i.ADC_ExternalTrigInjectedConvCmd), (22 bytes).
    Removing stm32f10x_adc.o(i.ADC_ExternalTrigInjectedConvConfig), (16 bytes).
    Removing stm32f10x_adc.o(i.ADC_GetConversionValue), (8 bytes).
    Removing stm32f10x_adc.o(i.ADC_GetDualModeConversionValue), (12 bytes).
    Removing stm32f10x_adc.o(i.ADC_GetFlagStatus), (18 bytes).
    Removing stm32f10x_adc.o(i.ADC_GetITStatus), (36 bytes).
    Removing stm32f10x_adc.o(i.ADC_GetInjectedConversionValue), (28 bytes).
    Removing stm32f10x_adc.o(i.ADC_GetSoftwareStartConvStatus), (20 bytes).
    Removing stm32f10x_adc.o(i.ADC_GetSoftwareStartInjectedConvCmdStatus), (20 bytes).
    Removing stm32f10x_adc.o(i.ADC_ITConfig), (24 bytes).
    Removing stm32f10x_adc.o(i.ADC_InjectedChannelConfig), (130 bytes).
    Removing stm32f10x_adc.o(i.ADC_InjectedDiscModeCmd), (22 bytes).
    Removing stm32f10x_adc.o(i.ADC_InjectedSequencerLengthConfig), (24 bytes).
    Removing stm32f10x_adc.o(i.ADC_SetInjectedOffset), (20 bytes).
    Removing stm32f10x_adc.o(i.ADC_SoftwareStartInjectedConvCmd), (22 bytes).
    Removing stm32f10x_adc.o(i.ADC_StructInit), (18 bytes).
    Removing stm32f10x_adc.o(i.ADC_TempSensorVrefintCmd), (36 bytes).
    Removing stm32f10x_bkp.o(i.BKP_ClearFlag), (20 bytes).
    Removing stm32f10x_bkp.o(i.BKP_ClearITPendingBit), (20 bytes).
    Removing stm32f10x_bkp.o(i.BKP_DeInit), (16 bytes).
    Removing stm32f10x_bkp.o(i.BKP_GetFlagStatus), (12 bytes).
    Removing stm32f10x_bkp.o(i.BKP_GetITStatus), (12 bytes).
    Removing stm32f10x_bkp.o(i.BKP_ITConfig), (12 bytes).
    Removing stm32f10x_bkp.o(i.BKP_RTCOutputConfig), (28 bytes).
    Removing stm32f10x_bkp.o(i.BKP_ReadBackupRegister), (28 bytes).
    Removing stm32f10x_bkp.o(i.BKP_SetRTCCalibrationValue), (28 bytes).
    Removing stm32f10x_bkp.o(i.BKP_TamperPinCmd), (12 bytes).
    Removing stm32f10x_bkp.o(i.BKP_TamperPinLevelConfig), (12 bytes).
    Removing stm32f10x_bkp.o(i.BKP_WriteBackupRegister), (28 bytes).
    Removing stm32f10x_can.o(i.CAN_CancelTransmit), (48 bytes).
    Removing stm32f10x_can.o(i.CAN_ClearFlag), (56 bytes).
    Removing stm32f10x_can.o(i.CAN_ClearITPendingBit), (168 bytes).
    Removing stm32f10x_can.o(i.CAN_DBGFreeze), (22 bytes).
    Removing stm32f10x_can.o(i.CAN_DeInit), (56 bytes).
    Removing stm32f10x_can.o(i.CAN_FIFORelease), (22 bytes).
    Removing stm32f10x_can.o(i.CAN_FilterInit), (264 bytes).
    Removing stm32f10x_can.o(i.CAN_GetFlagStatus), (120 bytes).
    Removing stm32f10x_can.o(i.CAN_GetITStatus), (288 bytes).
    Removing stm32f10x_can.o(i.CAN_GetLSBTransmitErrorCounter), (12 bytes).
    Removing stm32f10x_can.o(i.CAN_GetLastErrorCode), (12 bytes).
    Removing stm32f10x_can.o(i.CAN_GetReceiveErrorCounter), (10 bytes).
    Removing stm32f10x_can.o(i.CAN_ITConfig), (18 bytes).
    Removing stm32f10x_can.o(i.CAN_Init), (276 bytes).
    Removing stm32f10x_can.o(i.CAN_MessagePending), (30 bytes).
    Removing stm32f10x_can.o(i.CAN_OperatingModeRequest), (162 bytes).
    Removing stm32f10x_can.o(i.CAN_Receive), (240 bytes).
    Removing stm32f10x_can.o(i.CAN_SlaveStartBank), (52 bytes).
    Removing stm32f10x_can.o(i.CAN_Sleep), (30 bytes).
    Removing stm32f10x_can.o(i.CAN_StructInit), (32 bytes).
    Removing stm32f10x_can.o(i.CAN_TTComModeCmd), (118 bytes).
    Removing stm32f10x_can.o(i.CAN_Transmit), (294 bytes).
    Removing stm32f10x_can.o(i.CAN_TransmitStatus), (160 bytes).
    Removing stm32f10x_can.o(i.CAN_WakeUp), (48 bytes).
    Removing stm32f10x_can.o(i.CheckITStatus), (18 bytes).
    Removing stm32f10x_cec.o(i.CEC_ClearFlag), (36 bytes).
    Removing stm32f10x_cec.o(i.CEC_ClearITPendingBit), (36 bytes).
    Removing stm32f10x_cec.o(i.CEC_Cmd), (32 bytes).
    Removing stm32f10x_cec.o(i.CEC_DeInit), (22 bytes).
    Removing stm32f10x_cec.o(i.CEC_EndOfMessageCmd), (12 bytes).
    Removing stm32f10x_cec.o(i.CEC_GetFlagStatus), (48 bytes).
    Removing stm32f10x_cec.o(i.CEC_GetITStatus), (40 bytes).
    Removing stm32f10x_cec.o(i.CEC_ITConfig), (12 bytes).
    Removing stm32f10x_cec.o(i.CEC_Init), (32 bytes).
    Removing stm32f10x_cec.o(i.CEC_OwnAddressConfig), (12 bytes).
    Removing stm32f10x_cec.o(i.CEC_ReceiveDataByte), (12 bytes).
    Removing stm32f10x_cec.o(i.CEC_SendDataByte), (12 bytes).
    Removing stm32f10x_cec.o(i.CEC_SetPrescaler), (12 bytes).
    Removing stm32f10x_cec.o(i.CEC_StartOfMessage), (12 bytes).
    Removing stm32f10x_crc.o(i.CRC_CalcBlockCRC), (36 bytes).
    Removing stm32f10x_crc.o(i.CRC_CalcCRC), (16 bytes).
    Removing stm32f10x_crc.o(i.CRC_GetCRC), (12 bytes).
    Removing stm32f10x_crc.o(i.CRC_GetIDRegister), (12 bytes).
    Removing stm32f10x_crc.o(i.CRC_ResetDR), (12 bytes).
    Removing stm32f10x_crc.o(i.CRC_SetIDRegister), (12 bytes).
    Removing stm32f10x_dac.o(i.DAC_Cmd), (40 bytes).
    Removing stm32f10x_dac.o(i.DAC_DMACmd), (44 bytes).
    Removing stm32f10x_dac.o(i.DAC_DeInit), (22 bytes).
    Removing stm32f10x_dac.o(i.DAC_DualSoftwareTriggerCmd), (36 bytes).
    Removing stm32f10x_dac.o(i.DAC_GetDataOutputValue), (36 bytes).
    Removing stm32f10x_dac.o(i.DAC_Init), (52 bytes).
    Removing stm32f10x_dac.o(i.DAC_SetChannel1Data), (32 bytes).
    Removing stm32f10x_dac.o(i.DAC_SetChannel2Data), (32 bytes).
    Removing stm32f10x_dac.o(i.DAC_SetDualChannelData), (36 bytes).
    Removing stm32f10x_dac.o(i.DAC_SoftwareTriggerCmd), (44 bytes).
    Removing stm32f10x_dac.o(i.DAC_StructInit), (12 bytes).
    Removing stm32f10x_dac.o(i.DAC_WaveGenerationCmd), (40 bytes).
    Removing stm32f10x_dbgmcu.o(i.DBGMCU_Config), (32 bytes).
    Removing stm32f10x_dbgmcu.o(i.DBGMCU_GetDEVID), (16 bytes).
    Removing stm32f10x_dbgmcu.o(i.DBGMCU_GetREVID), (12 bytes).
    Removing stm32f10x_dma.o(i.DMA_ClearFlag), (28 bytes).
    Removing stm32f10x_dma.o(i.DMA_ClearITPendingBit), (28 bytes).
    Removing stm32f10x_dma.o(i.DMA_GetCurrDataCounter), (8 bytes).
    Removing stm32f10x_dma.o(i.DMA_GetFlagStatus), (44 bytes).
    Removing stm32f10x_dma.o(i.DMA_GetITStatus), (44 bytes).
    Removing stm32f10x_dma.o(i.DMA_ITConfig), (18 bytes).
    Removing stm32f10x_dma.o(i.DMA_SetCurrDataCounter), (4 bytes).
    Removing stm32f10x_dma.o(i.DMA_StructInit), (26 bytes).
    Removing stm32f10x_exti.o(i.EXTI_ClearFlag), (12 bytes).
    Removing stm32f10x_exti.o(i.EXTI_DeInit), (36 bytes).
    Removing stm32f10x_exti.o(i.EXTI_GenerateSWInterrupt), (16 bytes).
    Removing stm32f10x_exti.o(i.EXTI_GetFlagStatus), (24 bytes).
    Removing stm32f10x_exti.o(i.EXTI_StructInit), (16 bytes).
    Removing stm32f10x_flash.o(i.FLASH_EnableWriteProtection), (196 bytes).
    Removing stm32f10x_flash.o(i.FLASH_EraseAllBank1Pages), (72 bytes).
    Removing stm32f10x_flash.o(i.FLASH_EraseAllPages), (72 bytes).
    Removing stm32f10x_flash.o(i.FLASH_EraseOptionBytes), (168 bytes).
    Removing stm32f10x_flash.o(i.FLASH_GetFlagStatus), (48 bytes).
    Removing stm32f10x_flash.o(i.FLASH_GetPrefetchBufferStatus), (24 bytes).
    Removing stm32f10x_flash.o(i.FLASH_GetReadOutProtectionStatus), (24 bytes).
    Removing stm32f10x_flash.o(i.FLASH_GetStatus), (52 bytes).
    Removing stm32f10x_flash.o(i.FLASH_GetUserOptionByte), (12 bytes).
    Removing stm32f10x_flash.o(i.FLASH_GetWriteProtectionOptionByte), (12 bytes).
    Removing stm32f10x_flash.o(i.FLASH_HalfCycleAccessCmd), (28 bytes).
    Removing stm32f10x_flash.o(i.FLASH_ITConfig), (32 bytes).
    Removing stm32f10x_flash.o(i.FLASH_Lock), (20 bytes).
    Removing stm32f10x_flash.o(i.FLASH_PrefetchBufferCmd), (28 bytes).
    Removing stm32f10x_flash.o(i.FLASH_ProgramHalfWord), (64 bytes).
    Removing stm32f10x_flash.o(i.FLASH_ProgramOptionByteData), (84 bytes).
    Removing stm32f10x_flash.o(i.FLASH_ReadOutProtection), (172 bytes).
    Removing stm32f10x_flash.o(i.FLASH_SetLatency), (24 bytes).
    Removing stm32f10x_flash.o(i.FLASH_Unlock), (24 bytes).
    Removing stm32f10x_flash.o(i.FLASH_UserOptionByteConfig), (104 bytes).
    Removing stm32f10x_flash.o(i.FLASH_WaitForLastBank1Operation), (38 bytes).
    Removing stm32f10x_fsmc.o(i.FSMC_ClearFlag), (64 bytes).
    Removing stm32f10x_fsmc.o(i.FSMC_ClearITPendingBit), (72 bytes).
    Removing stm32f10x_fsmc.o(i.FSMC_GetECC), (28 bytes).
    Removing stm32f10x_fsmc.o(i.FSMC_GetFlagStatus), (56 bytes).
    Removing stm32f10x_fsmc.o(i.FSMC_GetITStatus), (68 bytes).
    Removing stm32f10x_fsmc.o(i.FSMC_ITConfig), (128 bytes).
    Removing stm32f10x_fsmc.o(i.FSMC_NANDCmd), (92 bytes).
    Removing stm32f10x_fsmc.o(i.FSMC_NANDDeInit), (68 bytes).
    Removing stm32f10x_fsmc.o(i.FSMC_NANDECCCmd), (92 bytes).
    Removing stm32f10x_fsmc.o(i.FSMC_NANDInit), (136 bytes).
    Removing stm32f10x_fsmc.o(i.FSMC_NANDStructInit), (54 bytes).
    Removing stm32f10x_fsmc.o(i.FSMC_NORSRAMCmd), (52 bytes).
    Removing stm32f10x_fsmc.o(i.FSMC_NORSRAMDeInit), (54 bytes).
    Removing stm32f10x_fsmc.o(i.FSMC_NORSRAMInit), (230 bytes).
    Removing stm32f10x_fsmc.o(i.FSMC_NORSRAMStructInit), (114 bytes).
    Removing stm32f10x_fsmc.o(i.FSMC_PCCARDCmd), (48 bytes).
    Removing stm32f10x_fsmc.o(i.FSMC_PCCARDDeInit), (40 bytes).
    Removing stm32f10x_fsmc.o(i.FSMC_PCCARDInit), (132 bytes).
    Removing stm32f10x_fsmc.o(i.FSMC_PCCARDStructInit), (60 bytes).
    Removing stm32f10x_gpio.o(i.GPIO_AFIODeInit), (20 bytes).
    Removing stm32f10x_gpio.o(i.GPIO_DeInit), (200 bytes).
    Removing stm32f10x_gpio.o(i.GPIO_ETH_MediaInterfaceConfig), (12 bytes).
    Removing stm32f10x_gpio.o(i.GPIO_EventOutputCmd), (12 bytes).
    Removing stm32f10x_gpio.o(i.GPIO_EventOutputConfig), (32 bytes).
    Removing stm32f10x_gpio.o(i.GPIO_PinLockConfig), (18 bytes).
    Removing stm32f10x_gpio.o(i.GPIO_ReadInputData), (8 bytes).
    Removing stm32f10x_gpio.o(i.GPIO_ReadOutputData), (8 bytes).
    Removing stm32f10x_gpio.o(i.GPIO_ReadOutputDataBit), (18 bytes).
    Removing stm32f10x_gpio.o(i.GPIO_StructInit), (16 bytes).
    Removing stm32f10x_gpio.o(i.GPIO_Write), (4 bytes).
    Removing stm32f10x_gpio.o(i.GPIO_WriteBit), (10 bytes).
    Removing stm32f10x_i2c.o(i.I2C_ARPCmd), (24 bytes).
    Removing stm32f10x_i2c.o(i.I2C_AcknowledgeConfig), (24 bytes).
    Removing stm32f10x_i2c.o(i.I2C_CalculatePEC), (24 bytes).
    Removing stm32f10x_i2c.o(i.I2C_CheckEvent), (42 bytes).
    Removing stm32f10x_i2c.o(i.I2C_ClearFlag), (12 bytes).
    Removing stm32f10x_i2c.o(i.I2C_ClearITPendingBit), (12 bytes).
    Removing stm32f10x_i2c.o(i.I2C_Cmd), (24 bytes).
    Removing stm32f10x_i2c.o(i.I2C_DMACmd), (24 bytes).
    Removing stm32f10x_i2c.o(i.I2C_DMALastTransferCmd), (24 bytes).
    Removing stm32f10x_i2c.o(i.I2C_DeInit), (56 bytes).
    Removing stm32f10x_i2c.o(i.I2C_DualAddressCmd), (24 bytes).
    Removing stm32f10x_i2c.o(i.I2C_FastModeDutyCycleConfig), (28 bytes).
    Removing stm32f10x_i2c.o(i.I2C_GeneralCallCmd), (24 bytes).
    Removing stm32f10x_i2c.o(i.I2C_GenerateSTART), (24 bytes).
    Removing stm32f10x_i2c.o(i.I2C_GenerateSTOP), (24 bytes).
    Removing stm32f10x_i2c.o(i.I2C_GetFlagStatus), (58 bytes).
    Removing stm32f10x_i2c.o(i.I2C_GetITStatus), (38 bytes).
    Removing stm32f10x_i2c.o(i.I2C_GetLastEvent), (26 bytes).
    Removing stm32f10x_i2c.o(i.I2C_GetPEC), (8 bytes).
    Removing stm32f10x_i2c.o(i.I2C_ITConfig), (18 bytes).
    Removing stm32f10x_i2c.o(i.I2C_Init), (236 bytes).
    Removing stm32f10x_i2c.o(i.I2C_NACKPositionConfig), (28 bytes).
    Removing stm32f10x_i2c.o(i.I2C_OwnAddress2Config), (22 bytes).
    Removing stm32f10x_i2c.o(i.I2C_PECPositionConfig), (28 bytes).
    Removing stm32f10x_i2c.o(i.I2C_ReadRegister), (22 bytes).
    Removing stm32f10x_i2c.o(i.I2C_ReceiveData), (8 bytes).
    Removing stm32f10x_i2c.o(i.I2C_SMBusAlertConfig), (28 bytes).
    Removing stm32f10x_i2c.o(i.I2C_Send7bitAddress), (18 bytes).
    Removing stm32f10x_i2c.o(i.I2C_SendData), (4 bytes).
    Removing stm32f10x_i2c.o(i.I2C_SoftwareResetCmd), (22 bytes).
    Removing stm32f10x_i2c.o(i.I2C_StretchClockCmd), (24 bytes).
    Removing stm32f10x_i2c.o(i.I2C_StructInit), (30 bytes).
    Removing stm32f10x_i2c.o(i.I2C_TransmitPEC), (24 bytes).
    Removing stm32f10x_iwdg.o(i.IWDG_Enable), (16 bytes).
    Removing stm32f10x_iwdg.o(i.IWDG_GetFlagStatus), (24 bytes).
    Removing stm32f10x_iwdg.o(i.IWDG_ReloadCounter), (16 bytes).
    Removing stm32f10x_iwdg.o(i.IWDG_SetPrescaler), (12 bytes).
    Removing stm32f10x_iwdg.o(i.IWDG_SetReload), (12 bytes).
    Removing stm32f10x_iwdg.o(i.IWDG_WriteAccessCmd), (12 bytes).
    Removing stm32f10x_pwr.o(i.PWR_BackupAccessCmd), (12 bytes).
    Removing stm32f10x_pwr.o(i.PWR_ClearFlag), (20 bytes).
    Removing stm32f10x_pwr.o(i.PWR_DeInit), (22 bytes).
    Removing stm32f10x_pwr.o(i.PWR_EnterSTANDBYMode), (52 bytes).
    Removing stm32f10x_pwr.o(i.PWR_EnterSTOPMode), (64 bytes).
    Removing stm32f10x_pwr.o(i.PWR_GetFlagStatus), (24 bytes).
    Removing stm32f10x_pwr.o(i.PWR_PVDCmd), (12 bytes).
    Removing stm32f10x_pwr.o(i.PWR_PVDLevelConfig), (24 bytes).
    Removing stm32f10x_pwr.o(i.PWR_WakeUpPinCmd), (12 bytes).
    Removing stm32f10x_rcc.o(i.RCC_AdjustHSICalibrationValue), (24 bytes).
    Removing stm32f10x_rcc.o(i.RCC_BackupResetCmd), (12 bytes).
    Removing stm32f10x_rcc.o(i.RCC_ClearFlag), (20 bytes).
    Removing stm32f10x_rcc.o(i.RCC_ClearITPendingBit), (12 bytes).
    Removing stm32f10x_rcc.o(i.RCC_ClockSecuritySystemCmd), (12 bytes).
    Removing stm32f10x_rcc.o(i.RCC_DeInit), (76 bytes).
    Removing stm32f10x_rcc.o(i.RCC_GetFlagStatus), (60 bytes).
    Removing stm32f10x_rcc.o(i.RCC_GetITStatus), (24 bytes).
    Removing stm32f10x_rcc.o(i.RCC_GetSYSCLKSource), (16 bytes).
    Removing stm32f10x_rcc.o(i.RCC_HCLKConfig), (24 bytes).
    Removing stm32f10x_rcc.o(i.RCC_HSEConfig), (76 bytes).
    Removing stm32f10x_rcc.o(i.RCC_HSICmd), (12 bytes).
    Removing stm32f10x_rcc.o(i.RCC_ITConfig), (32 bytes).
    Removing stm32f10x_rcc.o(i.RCC_LSEConfig), (52 bytes).
    Removing stm32f10x_rcc.o(i.RCC_LSICmd), (12 bytes).
    Removing stm32f10x_rcc.o(i.RCC_MCOConfig), (12 bytes).
    Removing stm32f10x_rcc.o(i.RCC_PCLK1Config), (24 bytes).
    Removing stm32f10x_rcc.o(i.RCC_PCLK2Config), (24 bytes).
    Removing stm32f10x_rcc.o(i.RCC_PLLCmd), (12 bytes).
    Removing stm32f10x_rcc.o(i.RCC_PLLConfig), (28 bytes).
    Removing stm32f10x_rcc.o(i.RCC_RTCCLKCmd), (12 bytes).
    Removing stm32f10x_rcc.o(i.RCC_RTCCLKConfig), (16 bytes).
    Removing stm32f10x_rcc.o(i.RCC_SYSCLKConfig), (24 bytes).
    Removing stm32f10x_rcc.o(i.RCC_USBCLKConfig), (12 bytes).
    Removing stm32f10x_rcc.o(i.RCC_WaitForHSEStartUp), (56 bytes).
    Removing stm32f10x_rtc.o(i.RTC_ClearFlag), (16 bytes).
    Removing stm32f10x_rtc.o(i.RTC_ClearITPendingBit), (16 bytes).
    Removing stm32f10x_rtc.o(i.RTC_EnterConfigMode), (20 bytes).
    Removing stm32f10x_rtc.o(i.RTC_ExitConfigMode), (20 bytes).
    Removing stm32f10x_rtc.o(i.RTC_GetCounter), (20 bytes).
    Removing stm32f10x_rtc.o(i.RTC_GetDivider), (24 bytes).
    Removing stm32f10x_rtc.o(i.RTC_GetFlagStatus), (24 bytes).
    Removing stm32f10x_rtc.o(i.RTC_GetITStatus), (36 bytes).
    Removing stm32f10x_rtc.o(i.RTC_ITConfig), (32 bytes).
    Removing stm32f10x_rtc.o(i.RTC_SetAlarm), (28 bytes).
    Removing stm32f10x_rtc.o(i.RTC_SetCounter), (28 bytes).
    Removing stm32f10x_rtc.o(i.RTC_SetPrescaler), (32 bytes).
    Removing stm32f10x_rtc.o(i.RTC_WaitForLastTask), (20 bytes).
    Removing stm32f10x_rtc.o(i.RTC_WaitForSynchro), (36 bytes).
    Removing stm32f10x_sdio.o(i.SDIO_CEATAITCmd), (16 bytes).
    Removing stm32f10x_sdio.o(i.SDIO_ClearFlag), (12 bytes).
    Removing stm32f10x_sdio.o(i.SDIO_ClearITPendingBit), (12 bytes).
    Removing stm32f10x_sdio.o(i.SDIO_ClockCmd), (12 bytes).
    Removing stm32f10x_sdio.o(i.SDIO_CmdStructInit), (14 bytes).
    Removing stm32f10x_sdio.o(i.SDIO_CommandCompletionCmd), (12 bytes).
    Removing stm32f10x_sdio.o(i.SDIO_DMACmd), (12 bytes).
    Removing stm32f10x_sdio.o(i.SDIO_DataConfig), (48 bytes).
    Removing stm32f10x_sdio.o(i.SDIO_DataStructInit), (20 bytes).
    Removing stm32f10x_sdio.o(i.SDIO_DeInit), (36 bytes).
    Removing stm32f10x_sdio.o(i.SDIO_GetCommandResponse), (12 bytes).
    Removing stm32f10x_sdio.o(i.SDIO_GetDataCounter), (12 bytes).
    Removing stm32f10x_sdio.o(i.SDIO_GetFIFOCount), (12 bytes).
    Removing stm32f10x_sdio.o(i.SDIO_GetFlagStatus), (24 bytes).
    Removing stm32f10x_sdio.o(i.SDIO_GetITStatus), (24 bytes).
    Removing stm32f10x_sdio.o(i.SDIO_GetPowerState), (16 bytes).
    Removing stm32f10x_sdio.o(i.SDIO_GetResponse), (24 bytes).
    Removing stm32f10x_sdio.o(i.SDIO_ITConfig), (32 bytes).
    Removing stm32f10x_sdio.o(i.SDIO_Init), (48 bytes).
    Removing stm32f10x_sdio.o(i.SDIO_ReadData), (12 bytes).
    Removing stm32f10x_sdio.o(i.SDIO_SendCEATACmd), (12 bytes).
    Removing stm32f10x_sdio.o(i.SDIO_SendCommand), (44 bytes).
    Removing stm32f10x_sdio.o(i.SDIO_SendSDIOSuspendCmd), (12 bytes).
    Removing stm32f10x_sdio.o(i.SDIO_SetPowerState), (28 bytes).
    Removing stm32f10x_sdio.o(i.SDIO_SetSDIOOperation), (12 bytes).
    Removing stm32f10x_sdio.o(i.SDIO_SetSDIOReadWaitMode), (12 bytes).
    Removing stm32f10x_sdio.o(i.SDIO_StartSDIOReadWait), (12 bytes).
    Removing stm32f10x_sdio.o(i.SDIO_StopSDIOReadWait), (12 bytes).
    Removing stm32f10x_sdio.o(i.SDIO_StructInit), (16 bytes).
    Removing stm32f10x_sdio.o(i.SDIO_WriteData), (12 bytes).
    Removing stm32f10x_spi.o(i.I2S_Cmd), (24 bytes).
    Removing stm32f10x_spi.o(i.I2S_Init), (232 bytes).
    Removing stm32f10x_spi.o(i.I2S_StructInit), (20 bytes).
    Removing stm32f10x_spi.o(i.SPI_BiDirectionalLineConfig), (28 bytes).
    Removing stm32f10x_spi.o(i.SPI_CalculateCRC), (24 bytes).
    Removing stm32f10x_spi.o(i.SPI_DataSizeConfig), (18 bytes).
    Removing stm32f10x_spi.o(i.SPI_GetCRC), (16 bytes).
    Removing stm32f10x_spi.o(i.SPI_GetCRCPolynomial), (6 bytes).
    Removing stm32f10x_spi.o(i.SPI_I2S_ClearFlag), (6 bytes).
    Removing stm32f10x_spi.o(i.SPI_I2S_ClearITPendingBit), (20 bytes).
    Removing stm32f10x_spi.o(i.SPI_I2S_DMACmd), (18 bytes).
    Removing stm32f10x_spi.o(i.SPI_I2S_DeInit), (88 bytes).
    Removing stm32f10x_spi.o(i.SPI_I2S_GetITStatus), (52 bytes).
    Removing stm32f10x_spi.o(i.SPI_I2S_ITConfig), (32 bytes).
    Removing stm32f10x_spi.o(i.SPI_NSSInternalSoftwareConfig), (30 bytes).
    Removing stm32f10x_spi.o(i.SPI_SSOutputCmd), (24 bytes).
    Removing stm32f10x_spi.o(i.SPI_StructInit), (24 bytes).
    Removing stm32f10x_spi.o(i.SPI_TransmitCRC), (10 bytes).
    Removing stm32f10x_tim.o(i.TI1_Config), (128 bytes).
    Removing stm32f10x_tim.o(i.TI2_Config), (152 bytes).
    Removing stm32f10x_tim.o(i.TI3_Config), (144 bytes).
    Removing stm32f10x_tim.o(i.TI4_Config), (152 bytes).
    Removing stm32f10x_tim.o(i.TIM_BDTRConfig), (32 bytes).
    Removing stm32f10x_tim.o(i.TIM_BDTRStructInit), (18 bytes).
    Removing stm32f10x_tim.o(i.TIM_CCPreloadControl), (24 bytes).
    Removing stm32f10x_tim.o(i.TIM_CCxCmd), (30 bytes).
    Removing stm32f10x_tim.o(i.TIM_CCxNCmd), (30 bytes).
    Removing stm32f10x_tim.o(i.TIM_ClearOC1Ref), (18 bytes).
    Removing stm32f10x_tim.o(i.TIM_ClearOC2Ref), (24 bytes).
    Removing stm32f10x_tim.o(i.TIM_ClearOC3Ref), (18 bytes).
    Removing stm32f10x_tim.o(i.TIM_ClearOC4Ref), (24 bytes).
    Removing stm32f10x_tim.o(i.TIM_CounterModeConfig), (18 bytes).
    Removing stm32f10x_tim.o(i.TIM_CtrlPWMOutputs), (30 bytes).
    Removing stm32f10x_tim.o(i.TIM_DMACmd), (18 bytes).
    Removing stm32f10x_tim.o(i.TIM_DMAConfig), (10 bytes).
    Removing stm32f10x_tim.o(i.TIM_ETRClockMode1Config), (54 bytes).
    Removing stm32f10x_tim.o(i.TIM_ETRClockMode2Config), (32 bytes).
    Removing stm32f10x_tim.o(i.TIM_ETRConfig), (28 bytes).
    Removing stm32f10x_tim.o(i.TIM_EncoderInterfaceConfig), (66 bytes).
    Removing stm32f10x_tim.o(i.TIM_ForcedOC1Config), (18 bytes).
    Removing stm32f10x_tim.o(i.TIM_ForcedOC2Config), (26 bytes).
    Removing stm32f10x_tim.o(i.TIM_ForcedOC3Config), (18 bytes).
    Removing stm32f10x_tim.o(i.TIM_ForcedOC4Config), (26 bytes).
    Removing stm32f10x_tim.o(i.TIM_GenerateEvent), (4 bytes).
    Removing stm32f10x_tim.o(i.TIM_GetCapture1), (6 bytes).
    Removing stm32f10x_tim.o(i.TIM_GetCapture2), (6 bytes).
    Removing stm32f10x_tim.o(i.TIM_GetCapture3), (6 bytes).
    Removing stm32f10x_tim.o(i.TIM_GetCapture4), (8 bytes).
    Removing stm32f10x_tim.o(i.TIM_GetFlagStatus), (18 bytes).
    Removing stm32f10x_tim.o(i.TIM_GetPrescaler), (6 bytes).
    Removing stm32f10x_tim.o(i.TIM_ICInit), (172 bytes).
    Removing stm32f10x_tim.o(i.TIM_ICStructInit), (18 bytes).
    Removing stm32f10x_tim.o(i.TIM_ITRxExternalClockConfig), (24 bytes).
    Removing stm32f10x_tim.o(i.TIM_InternalClockConfig), (12 bytes).
    Removing stm32f10x_tim.o(i.TIM_OC1FastConfig), (18 bytes).
    Removing stm32f10x_tim.o(i.TIM_OC1NPolarityConfig), (18 bytes).
    Removing stm32f10x_tim.o(i.TIM_OC1PolarityConfig), (18 bytes).
    Removing stm32f10x_tim.o(i.TIM_OC2FastConfig), (26 bytes).
    Removing stm32f10x_tim.o(i.TIM_OC2NPolarityConfig), (26 bytes).
    Removing stm32f10x_tim.o(i.TIM_OC2PolarityConfig), (26 bytes).
    Removing stm32f10x_tim.o(i.TIM_OC3FastConfig), (18 bytes).
    Removing stm32f10x_tim.o(i.TIM_OC3NPolarityConfig), (26 bytes).
    Removing stm32f10x_tim.o(i.TIM_OC3PolarityConfig), (26 bytes).
    Removing stm32f10x_tim.o(i.TIM_OC4FastConfig), (26 bytes).
    Removing stm32f10x_tim.o(i.TIM_OC4PolarityConfig), (26 bytes).
    Removing stm32f10x_tim.o(i.TIM_OCStructInit), (20 bytes).
    Removing stm32f10x_tim.o(i.TIM_PWMIConfig), (124 bytes).
    Removing stm32f10x_tim.o(i.TIM_PrescalerConfig), (6 bytes).
    Removing stm32f10x_tim.o(i.TIM_SelectCCDMA), (24 bytes).
    Removing stm32f10x_tim.o(i.TIM_SelectCOM), (24 bytes).
    Removing stm32f10x_tim.o(i.TIM_SelectHallSensor), (24 bytes).
    Removing stm32f10x_tim.o(i.TIM_SelectInputTrigger), (18 bytes).
    Removing stm32f10x_tim.o(i.TIM_SelectMasterSlaveMode), (18 bytes).
    Removing stm32f10x_tim.o(i.TIM_SelectOCxM), (82 bytes).
    Removing stm32f10x_tim.o(i.TIM_SelectOnePulseMode), (18 bytes).
    Removing stm32f10x_tim.o(i.TIM_SelectOutputTrigger), (18 bytes).
    Removing stm32f10x_tim.o(i.TIM_SelectSlaveMode), (18 bytes).
    Removing stm32f10x_tim.o(i.TIM_SetAutoreload), (4 bytes).
    Removing stm32f10x_tim.o(i.TIM_SetClockDivision), (18 bytes).
    Removing stm32f10x_tim.o(i.TIM_SetCompare1), (4 bytes).
    Removing stm32f10x_tim.o(i.TIM_SetCompare2), (4 bytes).
    Removing stm32f10x_tim.o(i.TIM_SetCompare3), (4 bytes).
    Removing stm32f10x_tim.o(i.TIM_SetCompare4), (6 bytes).
    Removing stm32f10x_tim.o(i.TIM_SetIC1Prescaler), (18 bytes).
    Removing stm32f10x_tim.o(i.TIM_SetIC2Prescaler), (26 bytes).
    Removing stm32f10x_tim.o(i.TIM_SetIC3Prescaler), (18 bytes).
    Removing stm32f10x_tim.o(i.TIM_SetIC4Prescaler), (26 bytes).
    Removing stm32f10x_tim.o(i.TIM_TIxExternalClockConfig), (62 bytes).
    Removing stm32f10x_tim.o(i.TIM_TimeBaseStructInit), (18 bytes).
    Removing stm32f10x_tim.o(i.TIM_UpdateDisableConfig), (24 bytes).
    Removing stm32f10x_tim.o(i.TIM_UpdateRequestConfig), (24 bytes).
    Removing stm32f10x_usart.o(i.USART_ClearFlag), (18 bytes).
    Removing stm32f10x_usart.o(i.USART_ClearITPendingBit), (30 bytes).
    Removing stm32f10x_usart.o(i.USART_ClockInit), (34 bytes).
    Removing stm32f10x_usart.o(i.USART_ClockStructInit), (12 bytes).
    Removing stm32f10x_usart.o(i.USART_DMACmd), (18 bytes).
    Removing stm32f10x_usart.o(i.USART_DeInit), (156 bytes).
    Removing stm32f10x_usart.o(i.USART_GetITStatus), (84 bytes).
    Removing stm32f10x_usart.o(i.USART_HalfDuplexCmd), (24 bytes).
    Removing stm32f10x_usart.o(i.USART_ITConfig), (74 bytes).
    Removing stm32f10x_usart.o(i.USART_IrDACmd), (24 bytes).
    Removing stm32f10x_usart.o(i.USART_IrDAConfig), (18 bytes).
    Removing stm32f10x_usart.o(i.USART_LINBreakDetectLengthConfig), (18 bytes).
    Removing stm32f10x_usart.o(i.USART_LINCmd), (24 bytes).
    Removing stm32f10x_usart.o(i.USART_OneBitMethodCmd), (24 bytes).
    Removing stm32f10x_usart.o(i.USART_OverSampling8Cmd), (22 bytes).
    Removing stm32f10x_usart.o(i.USART_ReceiveData), (10 bytes).
    Removing stm32f10x_usart.o(i.USART_ReceiverWakeUpCmd), (24 bytes).
    Removing stm32f10x_usart.o(i.USART_SendBreak), (10 bytes).
    Removing stm32f10x_usart.o(i.USART_SetAddress), (18 bytes).
    Removing stm32f10x_usart.o(i.USART_SetGuardTime), (16 bytes).
    Removing stm32f10x_usart.o(i.USART_SetPrescaler), (16 bytes).
    Removing stm32f10x_usart.o(i.USART_SmartCardCmd), (24 bytes).
    Removing stm32f10x_usart.o(i.USART_SmartCardNACKCmd), (24 bytes).
    Removing stm32f10x_usart.o(i.USART_StructInit), (24 bytes).
    Removing stm32f10x_usart.o(i.USART_WakeUpConfig), (18 bytes).
    Removing stm32f10x_wwdg.o(i.WWDG_ClearFlag), (12 bytes).
    Removing stm32f10x_wwdg.o(i.WWDG_DeInit), (22 bytes).
    Removing stm32f10x_wwdg.o(i.WWDG_Enable), (16 bytes).
    Removing stm32f10x_wwdg.o(i.WWDG_EnableIT), (12 bytes).
    Removing stm32f10x_wwdg.o(i.WWDG_GetFlagStatus), (12 bytes).
    Removing stm32f10x_wwdg.o(i.WWDG_SetCounter), (16 bytes).
    Removing stm32f10x_wwdg.o(i.WWDG_SetPrescaler), (24 bytes).
    Removing stm32f10x_wwdg.o(i.WWDG_SetWindowValue), (40 bytes).
    Removing gpio_config.o(i.SPI_FLASH_ReadDeviceID), (60 bytes).
    Removing gpio_config.o(i.USART3_Config), (140 bytes).
    Removing gpio_config.o(i.fgetc), (32 bytes).
    Removing gpio_config.o(i.send_USART1), (48 bytes).
    Removing nr24l01_reg.o(i.nrf_load_float), (400 bytes).
    Removing nr24l01_reg.o(i.nrf_load_sfloat), (192 bytes).
    Removing nr24l01_reg.o(i.nrf_unload_float), (232 bytes).
    Removing nr24l01_reg.o(i.nrf_unload_sfloat), (136 bytes).
    Removing oled.o(i.OLED_Display_Off), (28 bytes).
    Removing oled.o(i.OLED_Display_On), (28 bytes).
    Removing oled.o(i.OLED_DrawBMP), (118 bytes).
    Removing bsp_i2c.o(i.I2C_AK_BufferRead), (224 bytes).
    Removing bsp_i2c.o(i.I2C_AK_BufferWrite), (298 bytes).
    Removing bsp_i2c.o(i.I2C_AK_ByteWrite), (124 bytes).
    Removing bsp_i2c.o(i.I2C_AK_Init), (12 bytes).
    Removing bsp_i2c.o(i.I2C_AK_PageWrite), (156 bytes).
    Removing bsp_i2c.o(i.I2C_AK_WaitAkStandbyState), (80 bytes).
    Removing bsp_i2c.o(i.I2C_EE_BufferRead), (224 bytes).
    Removing bsp_i2c.o(i.I2C_EE_BufferWrite), (298 bytes).
    Removing bsp_i2c.o(i.I2C_EE_ByteWrite), (124 bytes).
    Removing bsp_i2c.o(i.I2C_EE_Init), (12 bytes).
    Removing bsp_i2c.o(i.I2C_EE_PageWrite), (156 bytes).
    Removing bsp_i2c.o(i.I2C_EE_WaitEepromStandbyState), (80 bytes).
    Removing bsp_i2c.o(i.I2C_GPIO_Config), (52 bytes).
    Removing bsp_i2c.o(i.I2C_Mode_Configu), (68 bytes).
    Removing bsp_i2c.o(.bss), (512 bytes).
    Removing i2c.o(i.I2C_RecvACK), (56 bytes).
    Removing i2c.o(i.I2C_SDA_IN), (28 bytes).
    Removing i2c.o(i.I2C_SDA_OUT), (36 bytes).
    Removing i2c.o(i.Single_ReadI2C), (50 bytes).
    Removing i2c.o(i.Single_WriteI2C), (34 bytes).
    Removing i2c.o(i.Single_add_ReadI2C), (54 bytes).
    Removing bmp_280.o(i.BMP280_I2C1WriteByte), (124 bytes).
    Removing bmp_280.o(i.BMP280_I2C2ReadData), (224 bytes).
    Removing mpu6050.o(i.MPU6050ReadID), (36 bytes).
    Removing mpu6050.o(i.MPU6050ReadTemp), (32 bytes).
    Removing mpu6050.o(i.MPU6050_ReturnTemp), (68 bytes).
    Removing mpu6050.o(i.PMU6050_ReadData), (20 bytes).
    Removing mpu6050.o(i.PMU6050_WriteReg), (16 bytes).
    Removing mpu6050.o(i.PMU9250_ReadData), (20 bytes).
    Removing mpu6050.o(i.PMU9250_WriteReg), (16 bytes).
    Removing mpu6050.o(.bss), (10 bytes).
    Removing mpu6050.o(.data), (14 bytes).
    Removing led_pwm.o(i.TIM2_GPIO_Config), (52 bytes).
    Removing led_pwm.o(i.TIM2_Mode_PWM1_Config), (102 bytes).
    Removing led_pwm.o(i.TIM2_Mode_PWM2_Config), (102 bytes).
    Removing led_pwm.o(i.TIM2_Mode_PWM3_Config), (102 bytes).
    Removing led_pwm.o(i.TIM2_Mode_PWM4_Config), (102 bytes).
    Removing led_pwm.o(i.TIM2_init), (38 bytes).
    Removing tim_time.o(i.TIM7_NVIC_Configuration), (42 bytes).
    Removing data_exchang.o(i.change), (684 bytes).
    Removing swap_data.o(i.Data_Send_Status), (316 bytes).
    Removing swap_data.o(i.sent_data_com), (484 bytes).
    Removing swap_data.o(.bss), (64 bytes).
    Removing ahrs.o(i.COS), (42 bytes).
    Removing ahrs.o(i.FL_ABS), (24 bytes).
    Removing ahrs.o(i.Q_rsqrt), (80 bytes).
    Removing ahrs.o(i.SIN), (52 bytes).
    Removing ahrs.o(i.VariableParameter), (108 bytes).
    Removing kalman_filter.o(i.KalmanFilter_Gx), (184 bytes).
    Removing kalman_filter.o(i.KalmanFilter_Gy), (184 bytes).
    Removing kalman_filter.o(i.KalmanFilter_Gz), (184 bytes).
    Removing pid_control.o(i.averag_gyro_OUT_X), (112 bytes).
    Removing pid_control.o(i.averag_gyro_OUT_Y), (112 bytes).
    Removing pid_control.o(i.averag_gyro_OUT_Z), (112 bytes).
    Removing ffixui.o(.text), (40 bytes).

477 unused section(s) (total 23654 bytes) removed from the image.

==============================================================================

Image Symbol Table

    Local Symbols

    Symbol Name                              Value     Ov Type        Size  Object(Section)

    ../clib/../cmprslib/zerorunl2.c          0x00000000   Number         0  __dczerorl2.o ABSOLUTE
    ../clib/microlib/division.c              0x00000000   Number         0  uldiv.o ABSOLUTE
    ../clib/microlib/division.c              0x00000000   Number         0  uidiv.o ABSOLUTE
    ../clib/microlib/errno.c                 0x00000000   Number         0  errno.o ABSOLUTE
    ../clib/microlib/init/entry.s            0x00000000   Number         0  entry8a.o ABSOLUTE
    ../clib/microlib/init/entry.s            0x00000000   Number         0  entry5.o ABSOLUTE
    ../clib/microlib/init/entry.s            0x00000000   Number         0  entry11a.o ABSOLUTE
    ../clib/microlib/init/entry.s            0x00000000   Number         0  entry9b.o ABSOLUTE
    ../clib/microlib/init/entry.s            0x00000000   Number         0  entry8b.o ABSOLUTE
    ../clib/microlib/init/entry.s            0x00000000   Number         0  entry7b.o ABSOLUTE
    ../clib/microlib/init/entry.s            0x00000000   Number         0  entry7a.o ABSOLUTE
    ../clib/microlib/init/entry.s            0x00000000   Number         0  entry10b.o ABSOLUTE
    ../clib/microlib/init/entry.s            0x00000000   Number         0  entry11b.o ABSOLUTE
    ../clib/microlib/init/entry.s            0x00000000   Number         0  entry.o ABSOLUTE
    ../clib/microlib/init/entry.s            0x00000000   Number         0  entry2.o ABSOLUTE
    ../clib/microlib/init/entry.s            0x00000000   Number         0  entry10a.o ABSOLUTE
    ../clib/microlib/init/entry.s            0x00000000   Number         0  entry9a.o ABSOLUTE
    ../clib/microlib/longlong.c              0x00000000   Number         0  llsshr.o ABSOLUTE
    ../clib/microlib/longlong.c              0x00000000   Number         0  llushr.o ABSOLUTE
    ../clib/microlib/longlong.c              0x00000000   Number         0  llshl.o ABSOLUTE
    ../clib/microlib/printf/printf.c         0x00000000   Number         0  printf0.o ABSOLUTE
    ../clib/microlib/printf/printf.c         0x00000000   Number         0  printf5.o ABSOLUTE
    ../clib/microlib/printf/printf.c         0x00000000   Number         0  printf6.o ABSOLUTE
    ../clib/microlib/printf/printf.c         0x00000000   Number         0  printf7.o ABSOLUTE
    ../clib/microlib/printf/printf.c         0x00000000   Number         0  printf8.o ABSOLUTE
    ../clib/microlib/printf/printf.c         0x00000000   Number         0  printf1.o ABSOLUTE
    ../clib/microlib/printf/printf.c         0x00000000   Number         0  printf2.o ABSOLUTE
    ../clib/microlib/printf/printf.c         0x00000000   Number         0  printf3.o ABSOLUTE
    ../clib/microlib/printf/printf.c         0x00000000   Number         0  printf4.o ABSOLUTE
    ../clib/microlib/printf/printf.c         0x00000000   Number         0  printfb.o ABSOLUTE
    ../clib/microlib/printf/printf.c         0x00000000   Number         0  printfa.o ABSOLUTE
    ../clib/microlib/printf/stubs.s          0x00000000   Number         0  stubs.o ABSOLUTE
    ../clib/microlib/stdio/streams.c         0x00000000   Number         0  stdout.o ABSOLUTE
    ../clib/microlib/stubs.s                 0x00000000   Number         0  iusefp.o ABSOLUTE
    ../fplib/microlib/d2f.c                  0x00000000   Number         0  d2f.o ABSOLUTE
    ../fplib/microlib/f2d.c                  0x00000000   Number         0  f2d.o ABSOLUTE
    ../fplib/microlib/fpadd.c                0x00000000   Number         0  fadd.o ABSOLUTE
    ../fplib/microlib/fpadd.c                0x00000000   Number         0  dadd.o ABSOLUTE
    ../fplib/microlib/fpdiv.c                0x00000000   Number         0  ddiv.o ABSOLUTE
    ../fplib/microlib/fpdiv.c                0x00000000   Number         0  fdiv.o ABSOLUTE
    ../fplib/microlib/fpepilogue.c           0x00000000   Number         0  fepilogue.o ABSOLUTE
    ../fplib/microlib/fpepilogue.c           0x00000000   Number         0  depilogue.o ABSOLUTE
    ../fplib/microlib/fpfix.c                0x00000000   Number         0  dfixui.o ABSOLUTE
    ../fplib/microlib/fpfix.c                0x00000000   Number         0  dfixi.o ABSOLUTE
    ../fplib/microlib/fpfix.c                0x00000000   Number         0  ffixui.o ABSOLUTE
    ../fplib/microlib/fpfix.c                0x00000000   Number         0  ffixi.o ABSOLUTE
    ../fplib/microlib/fpfix.c                0x00000000   Number         0  dfixul.o ABSOLUTE
    ../fplib/microlib/fpflt.c                0x00000000   Number         0  dfltui.o ABSOLUTE
    ../fplib/microlib/fpflt.c                0x00000000   Number         0  dflti.o ABSOLUTE
    ../fplib/microlib/fpflt.c                0x00000000   Number         0  fflti.o ABSOLUTE
    ../fplib/microlib/fpflt.c                0x00000000   Number         0  ffltui.o ABSOLUTE
    ../fplib/microlib/fpmul.c                0x00000000   Number         0  dmul.o ABSOLUTE
    ../fplib/microlib/fpmul.c                0x00000000   Number         0  fmul.o ABSOLUTE
    ../fplib/microlib/fpscalb.c              0x00000000   Number         0  dscalb.o ABSOLUTE
    ../fplib/microlib/fpsqrt.c               0x00000000   Number         0  dsqrt.o ABSOLUTE
    ../fplib/microlib/fpsqrt.c               0x00000000   Number         0  fsqrt.o ABSOLUTE
    ../mathlib/asin.c                        0x00000000   Number         0  asin.o ABSOLUTE
    ../mathlib/asin.c                        0x00000000   Number         0  asin_x.o ABSOLUTE
    ../mathlib/atan.c                        0x00000000   Number         0  atan.o ABSOLUTE
    ../mathlib/atan.c                        0x00000000   Number         0  atan_x.o ABSOLUTE
    ../mathlib/atan2.c                       0x00000000   Number         0  atan2_x.o ABSOLUTE
    ../mathlib/atan2.c                       0x00000000   Number         0  atan2.o ABSOLUTE
    ../mathlib/cos.c                         0x00000000   Number         0  cos.o ABSOLUTE
    ../mathlib/cos.c                         0x00000000   Number         0  cos_x.o ABSOLUTE
    ../mathlib/cos_i.c                       0x00000000   Number         0  cos_i.o ABSOLUTE
    ../mathlib/dunder.c                      0x00000000   Number         0  dunder.o ABSOLUTE
    ../mathlib/fpclassify.c                  0x00000000   Number         0  fpclassify.o ABSOLUTE
    ../mathlib/poly.c                        0x00000000   Number         0  poly.o ABSOLUTE
    ../mathlib/qnan.c                        0x00000000   Number         0  qnan.o ABSOLUTE
    ../mathlib/rred.c                        0x00000000   Number         0  rred.o ABSOLUTE
    ../mathlib/sin.c                         0x00000000   Number         0  sin_x.o ABSOLUTE
    ../mathlib/sin.c                         0x00000000   Number         0  sin.o ABSOLUTE
    ../mathlib/sin_i.c                       0x00000000   Number         0  sin_i_x.o ABSOLUTE
    ../mathlib/sin_i.c                       0x00000000   Number         0  sin_i.o ABSOLUTE
    ../mathlib/sqrt.c                        0x00000000   Number         0  sqrt_x.o ABSOLUTE
    ../mathlib/sqrt.c                        0x00000000   Number         0  sqrt.o ABSOLUTE
    ../mathlib/sqrtf.c                       0x00000000   Number         0  sqrtf_x.o ABSOLUTE
    ../mathlib/sqrtf.c                       0x00000000   Number         0  sqrtf.o ABSOLUTE
    ..\..\Libraries\CMSIS\core_cm3.c         0x00000000   Number         0  core_cm3.o ABSOLUTE
    ..\..\Libraries\CMSIS\startup\startup_stm32f10x_hd.s 0x00000000   Number         0  startup_stm32f10x_hd.o ABSOLUTE
    ..\..\Libraries\CMSIS\system_stm32f10x.c 0x00000000   Number         0  system_stm32f10x.o ABSOLUTE
    ..\..\Libraries\FWlib\src\misc.c         0x00000000   Number         0  misc.o ABSOLUTE
    ..\..\Libraries\FWlib\src\stm32f10x_adc.c 0x00000000   Number         0  stm32f10x_adc.o ABSOLUTE
    ..\..\Libraries\FWlib\src\stm32f10x_bkp.c 0x00000000   Number         0  stm32f10x_bkp.o ABSOLUTE
    ..\..\Libraries\FWlib\src\stm32f10x_can.c 0x00000000   Number         0  stm32f10x_can.o ABSOLUTE
    ..\..\Libraries\FWlib\src\stm32f10x_cec.c 0x00000000   Number         0  stm32f10x_cec.o ABSOLUTE
    ..\..\Libraries\FWlib\src\stm32f10x_crc.c 0x00000000   Number         0  stm32f10x_crc.o ABSOLUTE
    ..\..\Libraries\FWlib\src\stm32f10x_dac.c 0x00000000   Number         0  stm32f10x_dac.o ABSOLUTE
    ..\..\Libraries\FWlib\src\stm32f10x_dbgmcu.c 0x00000000   Number         0  stm32f10x_dbgmcu.o ABSOLUTE
    ..\..\Libraries\FWlib\src\stm32f10x_dma.c 0x00000000   Number         0  stm32f10x_dma.o ABSOLUTE
    ..\..\Libraries\FWlib\src\stm32f10x_exti.c 0x00000000   Number         0  stm32f10x_exti.o ABSOLUTE
    ..\..\Libraries\FWlib\src\stm32f10x_flash.c 0x00000000   Number         0  stm32f10x_flash.o ABSOLUTE
    ..\..\Libraries\FWlib\src\stm32f10x_fsmc.c 0x00000000   Number         0  stm32f10x_fsmc.o ABSOLUTE
    ..\..\Libraries\FWlib\src\stm32f10x_gpio.c 0x00000000   Number         0  stm32f10x_gpio.o ABSOLUTE
    ..\..\Libraries\FWlib\src\stm32f10x_i2c.c 0x00000000   Number         0  stm32f10x_i2c.o ABSOLUTE
    ..\..\Libraries\FWlib\src\stm32f10x_iwdg.c 0x00000000   Number         0  stm32f10x_iwdg.o ABSOLUTE
    ..\..\Libraries\FWlib\src\stm32f10x_pwr.c 0x00000000   Number         0  stm32f10x_pwr.o ABSOLUTE
    ..\..\Libraries\FWlib\src\stm32f10x_rcc.c 0x00000000   Number         0  stm32f10x_rcc.o ABSOLUTE
    ..\..\Libraries\FWlib\src\stm32f10x_rtc.c 0x00000000   Number         0  stm32f10x_rtc.o ABSOLUTE
    ..\..\Libraries\FWlib\src\stm32f10x_sdio.c 0x00000000   Number         0  stm32f10x_sdio.o ABSOLUTE
    ..\..\Libraries\FWlib\src\stm32f10x_spi.c 0x00000000   Number         0  stm32f10x_spi.o ABSOLUTE
    ..\..\Libraries\FWlib\src\stm32f10x_tim.c 0x00000000   Number         0  stm32f10x_tim.o ABSOLUTE
    ..\..\Libraries\FWlib\src\stm32f10x_usart.c 0x00000000   Number         0  stm32f10x_usart.o ABSOLUTE
    ..\..\Libraries\FWlib\src\stm32f10x_wwdg.c 0x00000000   Number         0  stm32f10x_wwdg.o ABSOLUTE
    ..\..\User\ADC_DMA.c                     0x00000000   Number         0  adc_dma.o ABSOLUTE
    ..\..\User\BMP_280.c                     0x00000000   Number         0  bmp_280.o ABSOLUTE
    ..\..\User\FLASH_RW.c                    0x00000000   Number         0  flash_rw.o ABSOLUTE
    ..\..\User\GPIO_Config.c                 0x00000000   Number         0  gpio_config.o ABSOLUTE
    ..\..\User\IIC\bsp_i2c.c                 0x00000000   Number         0  bsp_i2c.o ABSOLUTE
    ..\..\User\IIC\i2c.c                     0x00000000   Number         0  i2c.o ABSOLUTE
    ..\..\User\LED_config.c                  0x00000000   Number         0  led_config.o ABSOLUTE
    ..\..\User\OLED\oled.c                   0x00000000   Number         0  oled.o ABSOLUTE
    ..\..\User\PWM\led_pwm.c                 0x00000000   Number         0  led_pwm.o ABSOLUTE
    ..\..\User\Ultrasonic\TIM_time.c         0x00000000   Number         0  tim_time.o ABSOLUTE
    ..\..\User\Ultrasonic\UltrasonicWave.c   0x00000000   Number         0  ultrasonicwave.o ABSOLUTE
    ..\..\User\bsp_SysTick.c                 0x00000000   Number         0  bsp_systick.o ABSOLUTE
    ..\..\User\bsp_TiMbase.c                 0x00000000   Number         0  bsp_timbase.o ABSOLUTE
    ..\..\User\bsp_exti.c                    0x00000000   Number         0  bsp_exti.o ABSOLUTE
    ..\..\User\framework\AHRS.c              0x00000000   Number         0  ahrs.o ABSOLUTE
    ..\..\User\framework\Kalman_filter.c     0x00000000   Number         0  kalman_filter.o ABSOLUTE
    ..\..\User\framework\PID_control.c       0x00000000   Number         0  pid_control.o ABSOLUTE
    ..\..\User\framework\data_exchang.c      0x00000000   Number         0  data_exchang.o ABSOLUTE
    ..\..\User\framework\init_set.c          0x00000000   Number         0  init_set.o ABSOLUTE
    ..\..\User\framework\swap_data.c         0x00000000   Number         0  swap_data.o ABSOLUTE
    ..\..\User\irda\irda.c                   0x00000000   Number         0  irda.o ABSOLUTE
    ..\..\User\main.c                        0x00000000   Number         0  main.o ABSOLUTE
    ..\..\User\mpu6050.c                     0x00000000   Number         0  mpu6050.o ABSOLUTE
    ..\..\User\nR24L01_Reg.c                 0x00000000   Number         0  nr24l01_reg.o ABSOLUTE
    ..\..\User\pwm_config.c                  0x00000000   Number         0  pwm_config.o ABSOLUTE
    ..\..\User\stm32f10x_it.c                0x00000000   Number         0  stm32f10x_it.o ABSOLUTE
    ..\\..\\Libraries\\CMSIS\\core_cm3.c     0x00000000   Number         0  core_cm3.o ABSOLUTE
    cdcmple.s                                0x00000000   Number         0  cdcmple.o ABSOLUTE
    cdrcmple.s                               0x00000000   Number         0  cdrcmple.o ABSOLUTE
    cfcmple.s                                0x00000000   Number         0  cfcmple.o ABSOLUTE
    cfrcmple.s                               0x00000000   Number         0  cfrcmple.o ABSOLUTE
    dc.s                                     0x00000000   Number         0  dc.o ABSOLUTE
    handlers.s                               0x00000000   Number         0  handlers.o ABSOLUTE
    init.s                                   0x00000000   Number         0  init.o ABSOLUTE
    RESET                                    0x08000000   Section      304  startup_stm32f10x_hd.o(RESET)
    .ARM.Collect$$$$00000000                 0x08000130   Section        0  entry.o(.ARM.Collect$$$$00000000)
    .ARM.Collect$$$$00000001                 0x08000130   Section        4  entry2.o(.ARM.Collect$$$$00000001)
    .ARM.Collect$$$$00000004                 0x08000134   Section        4  entry5.o(.ARM.Collect$$$$00000004)
    .ARM.Collect$$$$00000008                 0x08000138   Section        0  entry7b.o(.ARM.Collect$$$$00000008)
    .ARM.Collect$$$$0000000A                 0x08000138   Section        0  entry8b.o(.ARM.Collect$$$$0000000A)
    .ARM.Collect$$$$0000000B                 0x08000138   Section        8  entry9a.o(.ARM.Collect$$$$0000000B)
    .ARM.Collect$$$$0000000D                 0x08000140   Section        0  entry10a.o(.ARM.Collect$$$$0000000D)
    .ARM.Collect$$$$0000000F                 0x08000140   Section        0  entry11a.o(.ARM.Collect$$$$0000000F)
    .ARM.Collect$$$$00002712                 0x08000140   Section        4  entry2.o(.ARM.Collect$$$$00002712)
    __lit__00000000                          0x08000140   Data           4  entry2.o(.ARM.Collect$$$$00002712)
    .text                                    0x08000144   Section       36  startup_stm32f10x_hd.o(.text)
    .text                                    0x08000168   Section        0  fadd.o(.text)
    .text                                    0x08000218   Section        0  fmul.o(.text)
    .text                                    0x0800027c   Section        0  fdiv.o(.text)
    .text                                    0x080002f8   Section        0  dadd.o(.text)
    .text                                    0x08000446   Section        0  dmul.o(.text)
    .text                                    0x0800052a   Section        0  ddiv.o(.text)
    .text                                    0x08000608   Section        0  fflti.o(.text)
    .text                                    0x0800061a   Section        0  ffltui.o(.text)
    .text                                    0x08000624   Section        0  dflti.o(.text)
    .text                                    0x08000646   Section        0  dfltui.o(.text)
    .text                                    0x08000660   Section        0  ffixi.o(.text)
    .text                                    0x08000692   Section        0  dfixi.o(.text)
    .text                                    0x080006d0   Section        0  dfixui.o(.text)
    .text                                    0x08000702   Section        0  f2d.o(.text)
    .text                                    0x08000728   Section       48  cdcmple.o(.text)
    .text                                    0x08000758   Section       48  cdrcmple.o(.text)
    .text                                    0x08000788   Section        0  d2f.o(.text)
    .text                                    0x080007c0   Section       20  cfcmple.o(.text)
    .text                                    0x080007d4   Section       20  cfrcmple.o(.text)
    .text                                    0x080007e8   Section        0  uidiv.o(.text)
    .text                                    0x08000814   Section        0  uldiv.o(.text)
    .text                                    0x08000876   Section        0  llshl.o(.text)
    .text                                    0x08000894   Section        0  llushr.o(.text)
    .text                                    0x080008b4   Section        0  llsshr.o(.text)
    .text                                    0x080008d8   Section        0  fepilogue.o(.text)
    .text                                    0x080008d8   Section        0  iusefp.o(.text)
    .text                                    0x08000946   Section        0  fsqrt.o(.text)
    .text                                    0x080009a4   Section        0  depilogue.o(.text)
    .text                                    0x08000a5e   Section        0  dscalb.o(.text)
    .text                                    0x08000a8c   Section        0  dsqrt.o(.text)
    .text                                    0x08000b2e   Section        0  dfixul.o(.text)
    .text                                    0x08000b60   Section       36  init.o(.text)
    .text                                    0x08000b84   Section        0  __dczerorl2.o(.text)
    i.ADC1_GPIO_Config                       0x08000bdc   Section        0  adc_dma.o(i.ADC1_GPIO_Config)
    ADC1_GPIO_Config                         0x08000bdd   Thumb Code    42  adc_dma.o(i.ADC1_GPIO_Config)
    i.ADC1_Init                              0x08000c0c   Section        0  adc_dma.o(i.ADC1_Init)
    i.ADC1_Mode_Config                       0x08000c18   Section        0  adc_dma.o(i.ADC1_Mode_Config)
    ADC1_Mode_Config                         0x08000c19   Thumb Code   210  adc_dma.o(i.ADC1_Mode_Config)
    i.ADC_Cmd                                0x08000cf8   Section        0  stm32f10x_adc.o(i.ADC_Cmd)
    i.ADC_DMACmd                             0x08000d0e   Section        0  stm32f10x_adc.o(i.ADC_DMACmd)
    i.ADC_GetCalibrationStatus               0x08000d24   Section        0  stm32f10x_adc.o(i.ADC_GetCalibrationStatus)
    i.ADC_GetResetCalibrationStatus          0x08000d38   Section        0  stm32f10x_adc.o(i.ADC_GetResetCalibrationStatus)
    i.ADC_Init                               0x08000d4c   Section        0  stm32f10x_adc.o(i.ADC_Init)
    i.ADC_RegularChannelConfig               0x08000d9c   Section        0  stm32f10x_adc.o(i.ADC_RegularChannelConfig)
    i.ADC_ResetCalibration                   0x08000e54   Section        0  stm32f10x_adc.o(i.ADC_ResetCalibration)
    i.ADC_SoftwareStartConvCmd               0x08000e5e   Section        0  stm32f10x_adc.o(i.ADC_SoftwareStartConvCmd)
    i.ADC_StartCalibration                   0x08000e74   Section        0  stm32f10x_adc.o(i.ADC_StartCalibration)
    i.AHRSupdate                             0x08000e80   Section        0  ahrs.o(i.AHRSupdate)
    i.BMP280_GetPressure                     0x080019b0   Section        0  bmp_280.o(i.BMP280_GetPressure)
    i.BMP280_GetTemperature                  0x08001dd8   Section        0  bmp_280.o(i.BMP280_GetTemperature)
    i.BMP280_Init                            0x08001f94   Section        0  bmp_280.o(i.BMP280_Init)
    i.BusFault_Handler                       0x08001fa2   Section        0  stm32f10x_it.o(i.BusFault_Handler)
    i.DATA_Kalman_Filter                     0x08001fa8   Section        0  kalman_filter.o(i.DATA_Kalman_Filter)
    i.DMA_Cmd                                0x08002044   Section        0  stm32f10x_dma.o(i.DMA_Cmd)
    i.DMA_DeInit                             0x0800205c   Section        0  stm32f10x_dma.o(i.DMA_DeInit)
    i.DMA_Init                               0x080021a8   Section        0  stm32f10x_dma.o(i.DMA_Init)
    i.DebugMon_Handler                       0x080021e4   Section        0  stm32f10x_it.o(i.DebugMon_Handler)
    i.DelayTime_us                           0x080021e6   Section        0  ultrasonicwave.o(i.DelayTime_us)
    i.Delay_600ns                            0x080021fc   Section        0  i2c.o(i.Delay_600ns)
    i.Delay_ms                               0x0800220e   Section        0  bsp_systick.o(i.Delay_ms)
    i.Delay_us                               0x08002228   Section        0  bsp_systick.o(i.Delay_us)
    i.EXTI15_10_IRQHandler                   0x08002250   Section        0  stm32f10x_it.o(i.EXTI15_10_IRQHandler)
    i.EXTI1_IRQHandler                       0x0800230c   Section        0  stm32f10x_it.o(i.EXTI1_IRQHandler)
    i.EXTI_ClearITPendingBit                 0x08002354   Section        0  stm32f10x_exti.o(i.EXTI_ClearITPendingBit)
    i.EXTI_GetITStatus                       0x08002360   Section        0  stm32f10x_exti.o(i.EXTI_GetITStatus)
    i.EXTI_Init                              0x08002388   Section        0  stm32f10x_exti.o(i.EXTI_Init)
    i.EXTI_PB15_Config                       0x0800241c   Section        0  irda.o(i.EXTI_PB15_Config)
    i.EXTI_PB1_Config                        0x0800246c   Section        0  bsp_exti.o(i.EXTI_PB1_Config)
    i.FLASH_ClearFlag                        0x080024b8   Section        0  stm32f10x_flash.o(i.FLASH_ClearFlag)
    i.FLASH_ErasePage                        0x080024c4   Section        0  stm32f10x_flash.o(i.FLASH_ErasePage)
    i.FLASH_GetBank1Status                   0x08002510   Section        0  stm32f10x_flash.o(i.FLASH_GetBank1Status)
    i.FLASH_LockBank1                        0x08002544   Section        0  stm32f10x_flash.o(i.FLASH_LockBank1)
    i.FLASH_ProgramWord                      0x08002558   Section        0  stm32f10x_flash.o(i.FLASH_ProgramWord)
    i.FLASH_UnlockBank1                      0x080025c4   Section        0  stm32f10x_flash.o(i.FLASH_UnlockBank1)
    i.FLASH_WaitForLastOperation             0x080025dc   Section        0  stm32f10x_flash.o(i.FLASH_WaitForLastOperation)
    i.Flash_data_init                        0x08002604   Section        0  flash_rw.o(i.Flash_data_init)
    i.GPIO_EXTILineConfig                    0x08002944   Section        0  stm32f10x_gpio.o(i.GPIO_EXTILineConfig)
    i.GPIO_Init                              0x08002984   Section        0  stm32f10x_gpio.o(i.GPIO_Init)
    i.GPIO_PinRemapConfig                    0x08002a9c   Section        0  stm32f10x_gpio.o(i.GPIO_PinRemapConfig)
    i.GPIO_ReadInputDataBit                  0x08002b2c   Section        0  stm32f10x_gpio.o(i.GPIO_ReadInputDataBit)
    i.GPIO_ResetBits                         0x08002b3e   Section        0  stm32f10x_gpio.o(i.GPIO_ResetBits)
    i.GPIO_SetBits                           0x08002b42   Section        0  stm32f10x_gpio.o(i.GPIO_SetBits)
    i.Get_Pulse_Time                         0x08002b48   Section        0  irda.o(i.Get_Pulse_Time)
    i.HardFault_Handler                      0x08002b78   Section        0  stm32f10x_it.o(i.HardFault_Handler)
    i.I2C_RecvByte                           0x08002b7c   Section        0  i2c.o(i.I2C_RecvByte)
    i.I2C_SendACK                            0x08002bc8   Section        0  i2c.o(i.I2C_SendACK)
    i.I2C_SendByte                           0x08002bf4   Section        0  i2c.o(i.I2C_SendByte)
    i.I2C_Start                              0x08002c50   Section        0  i2c.o(i.I2C_Start)
    i.I2C_Stop                               0x08002c8c   Section        0  i2c.o(i.I2C_Stop)
    i.IIC_ReadData                           0x08002cb4   Section        0  i2c.o(i.IIC_ReadData)
    i.IIC_add_WriteI2C                       0x08002d08   Section        0  i2c.o(i.IIC_add_WriteI2C)
    i.IrDa_Init                              0x08002d2c   Section        0  irda.o(i.IrDa_Init)
    i.IrDa_Process                           0x08002d34   Section        0  irda.o(i.IrDa_Process)
    i.KalmanFilter_x                         0x08002d78   Section        0  kalman_filter.o(i.KalmanFilter_x)
    KalmanFilter_x                           0x08002d79   Thumb Code   170  kalman_filter.o(i.KalmanFilter_x)
    i.KalmanFilter_y                         0x08002e30   Section        0  kalman_filter.o(i.KalmanFilter_y)
    KalmanFilter_y                           0x08002e31   Thumb Code   170  kalman_filter.o(i.KalmanFilter_y)
    i.KalmanFilter_z                         0x08002ee8   Section        0  kalman_filter.o(i.KalmanFilter_z)
    KalmanFilter_z                           0x08002ee9   Thumb Code   170  kalman_filter.o(i.KalmanFilter_z)
    i.LED_GPIO_Config                        0x08002fa0   Section        0  led_config.o(i.LED_GPIO_Config)
    i.MAG_data                               0x08002fd4   Section        0  data_exchang.o(i.MAG_data)
    i.MENU_1                                 0x08003044   Section        0  init_set.o(i.MENU_1)
    i.MENU_1_1                               0x08003238   Section        0  init_set.o(i.MENU_1_1)
    i.MENU_1_2                               0x08003610   Section        0  init_set.o(i.MENU_1_2)
    i.MENU_1_3                               0x08003bb4   Section        0  init_set.o(i.MENU_1_3)
    i.MENU_1_3_1                             0x08003d44   Section        0  init_set.o(i.MENU_1_3_1)
    i.MENU_1_3_2                             0x0800411c   Section        0  init_set.o(i.MENU_1_3_2)
    i.MENU_2                                 0x080046c0   Section        0  init_set.o(i.MENU_2)
    i.MENU_3                                 0x08004760   Section        0  init_set.o(i.MENU_3)
    i.MENU_3_1                               0x080048fc   Section        0  init_set.o(i.MENU_3_1)
    i.MENU_3_2                               0x08004b54   Section        0  init_set.o(i.MENU_3_2)
    i.MPU6050ReadAcc                         0x08004d60   Section        0  mpu6050.o(i.MPU6050ReadAcc)
    i.MPU6050ReadGyro                        0x08004da2   Section        0  mpu6050.o(i.MPU6050ReadGyro)
    i.MPU6050Read_all                        0x08004de4   Section        0  mpu6050.o(i.MPU6050Read_all)
    i.MPU6050_Init                           0x08004e6a   Section        0  mpu6050.o(i.MPU6050_Init)
    i.MPU9250ReadMag                         0x08004f06   Section        0  mpu6050.o(i.MPU9250ReadMag)
    i.MemManage_Handler                      0x08004f52   Section        0  stm32f10x_it.o(i.MemManage_Handler)
    i.NMI_Handler                            0x08004f56   Section        0  stm32f10x_it.o(i.NMI_Handler)
    i.NVIC_Configuration                     0x08004f58   Section        0  irda.o(i.NVIC_Configuration)
    NVIC_Configuration                       0x08004f59   Thumb Code    42  irda.o(i.NVIC_Configuration)
    i.NVIC_Init                              0x08004f84   Section        0  misc.o(i.NVIC_Init)
    i.NVIC_PriorityGroupConfig               0x08004ff4   Section        0  misc.o(i.NVIC_PriorityGroupConfig)
    i.OLED_Clear                             0x08005008   Section        0  oled.o(i.OLED_Clear)
    i.OLED_Init                              0x08005048   Section        0  oled.o(i.OLED_Init)
    i.OLED_Set_Pos                           0x080051ac   Section        0  oled.o(i.OLED_Set_Pos)
    i.OLED_ShowCHinese                       0x080051dc   Section        0  oled.o(i.OLED_ShowCHinese)
    i.OLED_ShowCHinese_inverse               0x08005244   Section        0  oled.o(i.OLED_ShowCHinese_inverse)
    i.OLED_ShowChar                          0x080052b4   Section        0  oled.o(i.OLED_ShowChar)
    i.OLED_ShowNum                           0x08005324   Section        0  oled.o(i.OLED_ShowNum)
    i.OLED_ShowString                        0x080053a8   Section        0  oled.o(i.OLED_ShowString)
    i.OLED_WR_Byte                           0x080053e0   Section        0  oled.o(i.OLED_WR_Byte)
    i.PB1_NVIC_Configuration                 0x08005464   Section        0  bsp_exti.o(i.PB1_NVIC_Configuration)
    PB1_NVIC_Configuration                   0x08005465   Thumb Code    42  bsp_exti.o(i.PB1_NVIC_Configuration)
    i.PID_control                            0x08005490   Section        0  pid_control.o(i.PID_control)
    i.PID_pitch_Control                      0x08005534   Section        0  pid_control.o(i.PID_pitch_Control)
    i.PID_roll_Control                       0x08005814   Section        0  pid_control.o(i.PID_roll_Control)
    i.PID_yaw_Control                        0x08005af0   Section        0  pid_control.o(i.PID_yaw_Control)
    i.PWM_control                            0x08005e08   Section        0  pid_control.o(i.PWM_control)
    i.PendSV_Handler                         0x08005f80   Section        0  stm32f10x_it.o(i.PendSV_Handler)
    i.RCC_ADCCLKConfig                       0x08005f84   Section        0  stm32f10x_rcc.o(i.RCC_ADCCLKConfig)
    i.RCC_AHBPeriphClockCmd                  0x08005f9c   Section        0  stm32f10x_rcc.o(i.RCC_AHBPeriphClockCmd)
    i.RCC_APB1PeriphClockCmd                 0x08005fbc   Section        0  stm32f10x_rcc.o(i.RCC_APB1PeriphClockCmd)
    i.RCC_APB1PeriphResetCmd                 0x08005fdc   Section        0  stm32f10x_rcc.o(i.RCC_APB1PeriphResetCmd)
    i.RCC_APB2PeriphClockCmd                 0x08005ffc   Section        0  stm32f10x_rcc.o(i.RCC_APB2PeriphClockCmd)
    i.RCC_APB2PeriphResetCmd                 0x0800601c   Section        0  stm32f10x_rcc.o(i.RCC_APB2PeriphResetCmd)
    i.RCC_GetClocksFreq                      0x0800603c   Section        0  stm32f10x_rcc.o(i.RCC_GetClocksFreq)
    i.ReadFlashNBtye                         0x08006110   Section        0  flash_rw.o(i.ReadFlashNBtye)
    i.SPI_Cmd                                0x08006130   Section        0  stm32f10x_spi.o(i.SPI_Cmd)
    i.SPI_DATA_Init                          0x08006148   Section        0  gpio_config.o(i.SPI_DATA_Init)
    i.SPI_FLASH_SendByte                     0x08006214   Section        0  gpio_config.o(i.SPI_FLASH_SendByte)
    i.SPI_I2S_GetFlagStatus                  0x0800624c   Section        0  stm32f10x_spi.o(i.SPI_I2S_GetFlagStatus)
    i.SPI_I2S_ReceiveData                    0x0800625e   Section        0  stm32f10x_spi.o(i.SPI_I2S_ReceiveData)
    i.SPI_I2S_SendData                       0x08006264   Section        0  stm32f10x_spi.o(i.SPI_I2S_SendData)
    i.SPI_Init                               0x08006268   Section        0  stm32f10x_spi.o(i.SPI_Init)
    i.SPI_Read_Buf                           0x080062a4   Section        0  nr24l01_reg.o(i.SPI_Read_Buf)
    i.SPI_Read_Reg                           0x080062e4   Section        0  nr24l01_reg.o(i.SPI_Read_Reg)
    i.SPI_Write_Buf                          0x0800630c   Section        0  nr24l01_reg.o(i.SPI_Write_Buf)
    i.SPI_Write_Reg                          0x08006348   Section        0  nr24l01_reg.o(i.SPI_Write_Reg)
    i.SVC_Handler                            0x08006374   Section        0  stm32f10x_it.o(i.SVC_Handler)
    i.SetSysClock                            0x08006376   Section        0  system_stm32f10x.o(i.SetSysClock)
    SetSysClock                              0x08006377   Thumb Code     8  system_stm32f10x.o(i.SetSysClock)
    i.SetSysClockTo72                        0x08006380   Section        0  system_stm32f10x.o(i.SetSysClockTo72)
    SetSysClockTo72                          0x08006381   Thumb Code   214  system_stm32f10x.o(i.SetSysClockTo72)
    i.SysTick_Handler                        0x08006460   Section        0  stm32f10x_it.o(i.SysTick_Handler)
    i.SysTick_Init                           0x08006468   Section        0  bsp_systick.o(i.SysTick_Init)
    i.SystemInit                             0x080064e4   Section        0  system_stm32f10x.o(i.SystemInit)
    i.TIM3_GPIO_Config                       0x08006544   Section        0  pwm_config.o(i.TIM3_GPIO_Config)
    TIM3_GPIO_Config                         0x08006545   Thumb Code    64  pwm_config.o(i.TIM3_GPIO_Config)
    i.TIM3_Mode_PWM1_Config                  0x0800658c   Section        0  pwm_config.o(i.TIM3_Mode_PWM1_Config)
    i.TIM3_Mode_PWM2_Config                  0x080065f4   Section        0  pwm_config.o(i.TIM3_Mode_PWM2_Config)
    i.TIM3_Mode_PWM3_Config                  0x0800665c   Section        0  pwm_config.o(i.TIM3_Mode_PWM3_Config)
    i.TIM3_Mode_PWM4_Config                  0x080066c4   Section        0  pwm_config.o(i.TIM3_Mode_PWM4_Config)
    i.TIM3_init                              0x0800672c   Section        0  pwm_config.o(i.TIM3_init)
    i.TIM6_Configuration                     0x08006754   Section        0  bsp_timbase.o(i.TIM6_Configuration)
    i.TIM6_IRQHandler                        0x080067a8   Section        0  stm32f10x_it.o(i.TIM6_IRQHandler)
    i.TIM6_NVIC_Configuration                0x080068c0   Section        0  bsp_timbase.o(i.TIM6_NVIC_Configuration)
    i.TIM7_Configuration                     0x080068ec   Section        0  tim_time.o(i.TIM7_Configuration)
    i.TIM_ARRPreloadConfig                   0x0800692c   Section        0  stm32f10x_tim.o(i.TIM_ARRPreloadConfig)
    i.TIM_ClearFlag                          0x08006944   Section        0  stm32f10x_tim.o(i.TIM_ClearFlag)
    i.TIM_ClearITPendingBit                  0x0800694a   Section        0  stm32f10x_tim.o(i.TIM_ClearITPendingBit)
    i.TIM_Cmd                                0x08006950   Section        0  stm32f10x_tim.o(i.TIM_Cmd)
    i.TIM_DeInit                             0x08006968   Section        0  stm32f10x_tim.o(i.TIM_DeInit)
    i.TIM_GetCounter                         0x08006b50   Section        0  stm32f10x_tim.o(i.TIM_GetCounter)
    i.TIM_GetITStatus                        0x08006b56   Section        0  stm32f10x_tim.o(i.TIM_GetITStatus)
    i.TIM_ITConfig                           0x08006b78   Section        0  stm32f10x_tim.o(i.TIM_ITConfig)
    i.TIM_OC1Init                            0x08006b8c   Section        0  stm32f10x_tim.o(i.TIM_OC1Init)
    i.TIM_OC1PreloadConfig                   0x08006c24   Section        0  stm32f10x_tim.o(i.TIM_OC1PreloadConfig)
    i.TIM_OC2Init                            0x08006c38   Section        0  stm32f10x_tim.o(i.TIM_OC2Init)
    i.TIM_OC2PreloadConfig                   0x08006cdc   Section        0  stm32f10x_tim.o(i.TIM_OC2PreloadConfig)
    i.TIM_OC3Init                            0x08006cf8   Section        0  stm32f10x_tim.o(i.TIM_OC3Init)
    i.TIM_OC3PreloadConfig                   0x08006d98   Section        0  stm32f10x_tim.o(i.TIM_OC3PreloadConfig)
    i.TIM_OC4Init                            0x08006dac   Section        0  stm32f10x_tim.o(i.TIM_OC4Init)
    i.TIM_OC4PreloadConfig                   0x08006e28   Section        0  stm32f10x_tim.o(i.TIM_OC4PreloadConfig)
    i.TIM_SetCounter                         0x08006e42   Section        0  stm32f10x_tim.o(i.TIM_SetCounter)
    i.TIM_TimeBaseInit                       0x08006e48   Section        0  stm32f10x_tim.o(i.TIM_TimeBaseInit)
    i.TimingDelay_Decrement                  0x08006eec   Section        0  bsp_systick.o(i.TimingDelay_Decrement)
    i.USART1_Config                          0x08006f04   Section        0  gpio_config.o(i.USART1_Config)
    i.USART1_DMA_Config                      0x08006f80   Section        0  gpio_config.o(i.USART1_DMA_Config)
    i.USART_Cmd                              0x08006fd8   Section        0  stm32f10x_usart.o(i.USART_Cmd)
    i.USART_GetFlagStatus                    0x08006ff0   Section        0  stm32f10x_usart.o(i.USART_GetFlagStatus)
    i.USART_Init                             0x0800700c   Section        0  stm32f10x_usart.o(i.USART_Init)
    i.USART_SendData                         0x080070e4   Section        0  stm32f10x_usart.o(i.USART_SendData)
    i.UltrasonicWave_CalculateTime           0x080070ec   Section        0  ultrasonicwave.o(i.UltrasonicWave_CalculateTime)
    i.UltrasonicWave_Configuration           0x08007114   Section        0  ultrasonicwave.o(i.UltrasonicWave_Configuration)
    i.UltrasonicWave_OK                      0x08007140   Section        0  ultrasonicwave.o(i.UltrasonicWave_OK)
    i.UltrasonicWave_StartMeasure            0x08007194   Section        0  ultrasonicwave.o(i.UltrasonicWave_StartMeasure)
    i.UsageFault_Handler                     0x080071bc   Section        0  stm32f10x_it.o(i.UsageFault_Handler)
    i.WriteFlashOneWord                      0x080071c0   Section        0  flash_rw.o(i.WriteFlashOneWord)
    i.YAW_data_init                          0x08007398   Section        0  data_exchang.o(i.YAW_data_init)
    i.__0printf                              0x080073e8   Section        0  printfa.o(i.__0printf)
    i.__ARM_fpclassify                       0x08007408   Section        0  fpclassify.o(i.__ARM_fpclassify)
    i.__ieee754_rem_pio2                     0x08007430   Section        0  rred.o(i.__ieee754_rem_pio2)
    i.__kernel_cos                           0x080077b8   Section        0  cos_i.o(i.__kernel_cos)
    i.__kernel_poly                          0x080078b4   Section        0  poly.o(i.__kernel_poly)
    i.__kernel_sin                           0x08007960   Section        0  sin_i.o(i.__kernel_sin)
    i.__mathlib_dbl_infnan                   0x08007a4c   Section        0  dunder.o(i.__mathlib_dbl_infnan)
    i.__mathlib_dbl_infnan2                  0x08007a52   Section        0  dunder.o(i.__mathlib_dbl_infnan2)
    i.__mathlib_dbl_invalid                  0x08007a56   Section        0  dunder.o(i.__mathlib_dbl_invalid)
    i.__mathlib_dbl_underflow                0x08007a64   Section        0  dunder.o(i.__mathlib_dbl_underflow)
    i.__scatterload_copy                     0x08007a74   Section       14  handlers.o(i.__scatterload_copy)
    i.__scatterload_null                     0x08007a82   Section        2  handlers.o(i.__scatterload_null)
    i.__scatterload_zeroinit                 0x08007a84   Section       14  handlers.o(i.__scatterload_zeroinit)
    i.__set_errno                            0x08007a94   Section        0  errno.o(i.__set_errno)
    i._fp_digits                             0x08007aa0   Section        0  printfa.o(i._fp_digits)
    _fp_digits                               0x08007aa1   Thumb Code   366  printfa.o(i._fp_digits)
    i._printf_core                           0x08007c24   Section        0  printfa.o(i._printf_core)
    _printf_core                             0x08007c25   Thumb Code  1744  printfa.o(i._printf_core)
    i._printf_post_padding                   0x08008300   Section        0  printfa.o(i._printf_post_padding)
    _printf_post_padding                     0x08008301   Thumb Code    36  printfa.o(i._printf_post_padding)
    i._printf_pre_padding                    0x08008324   Section        0  printfa.o(i._printf_pre_padding)
    _printf_pre_padding                      0x08008325   Thumb Code    46  printfa.o(i._printf_pre_padding)
    i.asin                                   0x08008354   Section        0  asin.o(i.asin)
    i.atan                                   0x080085c4   Section        0  atan.o(i.atan)
    i.atan2                                  0x080087e4   Section        0  atan2.o(i.atan2)
    i.averag_gyro_X                          0x08008964   Section        0  pid_control.o(i.averag_gyro_X)
    i.averag_gyro_Y                          0x08008a0c   Section        0  pid_control.o(i.averag_gyro_Y)
    i.averag_gyro_Z                          0x08008ab4   Section        0  pid_control.o(i.averag_gyro_Z)
    i.calibration_GA                         0x08008b5c   Section        0  data_exchang.o(i.calibration_GA)
    i.calibration_Mag                        0x08008d4c   Section        0  data_exchang.o(i.calibration_Mag)
    i.complete_GA_data                       0x0800907c   Section        0  init_set.o(i.complete_GA_data)
    i.complete_data                          0x08009290   Section        0  init_set.o(i.complete_data)
    i.cos                                    0x0800949c   Section        0  cos.o(i.cos)
    i.data_chang                             0x08009538   Section        0  swap_data.o(i.data_chang)
    i.data_handling                          0x080097a0   Section        0  data_exchang.o(i.data_handling)
    i.data_init                              0x08009950   Section        0  data_exchang.o(i.data_init)
    i.data_turn                              0x08009a08   Section        0  flash_rw.o(i.data_turn)
    i.fputc                                  0x08009a3c   Section        0  gpio_config.o(i.fputc)
    i.get_nrf_sta                            0x08009a60   Section        0  nr24l01_reg.o(i.get_nrf_sta)
    i.gpio_i2c                               0x08009a7c   Section        0  i2c.o(i.gpio_i2c)
    i.init_NRF24L01                          0x08009aa8   Section        0  nr24l01_reg.o(i.init_NRF24L01)
    i.init_quaternion                        0x08009b18   Section        0  ahrs.o(i.init_quaternion)
    i.invSqrt                                0x0800a364   Section        0  ahrs.o(i.invSqrt)
    i.main                                   0x0800a3b0   Section        0  main.o(i.main)
    i.nrf_RxMod                              0x0800a4b4   Section        0  nr24l01_reg.o(i.nrf_RxMod)
    i.nrf_TxMod                              0x0800a4e0   Section        0  nr24l01_reg.o(i.nrf_TxMod)
    i.nrf_read                               0x0800a50c   Section        0  nr24l01_reg.o(i.nrf_read)
    i.nrf_trans                              0x0800a544   Section        0  nr24l01_reg.o(i.nrf_trans)
    i.oled_pow                               0x0800a584   Section        0  oled.o(i.oled_pow)
    i.read_flash_data                        0x0800a59c   Section        0  flash_rw.o(i.read_flash_data)
    i.send_byte_USART1                       0x0800a6d4   Section        0  gpio_config.o(i.send_byte_USART1)
    i.send_line                              0x0800a6f4   Section        0  swap_data.o(i.send_line)
    i.set_data                               0x0800a778   Section        0  init_set.o(i.set_data)
    i.sin                                    0x0800aa28   Section        0  sin.o(i.sin)
    i.sqrt                                   0x0800aac8   Section        0  sqrt.o(i.sqrt)
    i.sqrtf                                  0x0800ab14   Section        0  sqrtf.o(i.sqrtf)
    i.write_flash_data                       0x0800ab40   Section        0  flash_rw.o(i.write_flash_data)
    .constdata                               0x0800ab4c   Section     2072  oled.o(.constdata)
    .constdata                               0x0800b368   Section       80  asin.o(.constdata)
    pS                                       0x0800b368   Data          48  asin.o(.constdata)
    qS                                       0x0800b398   Data          32  asin.o(.constdata)
    .constdata                               0x0800b3b8   Section      152  atan.o(.constdata)
    atanhi                                   0x0800b3b8   Data          32  atan.o(.constdata)
    atanlo                                   0x0800b3d8   Data          32  atan.o(.constdata)
    aTodd                                    0x0800b3f8   Data          40  atan.o(.constdata)
    aTeven                                   0x0800b420   Data          48  atan.o(.constdata)
    .constdata                               0x0800b450   Section       48  cos_i.o(.constdata)
    C                                        0x0800b450   Data          48  cos_i.o(.constdata)
    .constdata                               0x0800b480   Section        8  qnan.o(.constdata)
    .constdata                               0x0800b488   Section      200  rred.o(.constdata)
    pio2s                                    0x0800b488   Data          48  rred.o(.constdata)
    twooverpi                                0x0800b4b8   Data         152  rred.o(.constdata)
    .constdata                               0x0800b550   Section       40  sin_i.o(.constdata)
    S                                        0x0800b550   Data          40  sin_i.o(.constdata)
    .data                                    0x20000000   Section       20  system_stm32f10x.o(.data)
    .data                                    0x20000014   Section       20  stm32f10x_rcc.o(.data)
    APBAHBPrescTable                         0x20000014   Data          16  stm32f10x_rcc.o(.data)
    ADCPrescTable                            0x20000024   Data           4  stm32f10x_rcc.o(.data)
    .data                                    0x20000028   Section       24  main.o(.data)
    .data                                    0x20000040   Section       11  stm32f10x_it.o(.data)
    .data                                    0x2000004b   Section       75  nr24l01_reg.o(.data)
    .data                                    0x20000098   Section        4  bsp_systick.o(.data)
    TimingDelay                              0x20000098   Data           4  bsp_systick.o(.data)
    .data                                    0x2000009c   Section     2496  oled.o(.data)
    .data                                    0x20000a5c   Section       40  bmp_280.o(.data)
    .data                                    0x20000a84   Section        2  adc_dma.o(.data)
    .data                                    0x20000a88   Section       12  ultrasonicwave.o(.data)
    .data                                    0x20000a94   Section        6  irda.o(.data)
    .data                                    0x20000a9a   Section        3  init_set.o(.data)
    .data                                    0x20000aa0   Section      128  data_exchang.o(.data)
    .data                                    0x20000b20   Section       98  swap_data.o(.data)
    .data                                    0x20000b84   Section       64  ahrs.o(.data)
    .data                                    0x20000bc4   Section       88  flash_rw.o(.data)
    .data                                    0x20000c20   Section       96  kalman_filter.o(.data)
    x_last                                   0x20000c20   Data           8  kalman_filter.o(.data)
    p_last                                   0x20000c28   Data           8  kalman_filter.o(.data)
    x_last                                   0x20000c30   Data           8  kalman_filter.o(.data)
    p_last                                   0x20000c38   Data           8  kalman_filter.o(.data)
    x_last                                   0x20000c40   Data           8  kalman_filter.o(.data)
    p_last                                   0x20000c48   Data           8  kalman_filter.o(.data)
    x_last                                   0x20000c50   Data           8  kalman_filter.o(.data)
    p_last                                   0x20000c58   Data           8  kalman_filter.o(.data)
    x_last                                   0x20000c60   Data           8  kalman_filter.o(.data)
    p_last                                   0x20000c68   Data           8  kalman_filter.o(.data)
    x_last                                   0x20000c70   Data           8  kalman_filter.o(.data)
    p_last                                   0x20000c78   Data           8  kalman_filter.o(.data)
    .data                                    0x20000c80   Section      244  pid_control.o(.data)
    roll_external                            0x20000d20   Data           4  pid_control.o(.data)
    errP                                     0x20000d24   Data           4  pid_control.o(.data)
    errD                                     0x20000d28   Data           4  pid_control.o(.data)
    errI                                     0x20000d2c   Data           4  pid_control.o(.data)
    errP_int                                 0x20000d30   Data           4  pid_control.o(.data)
    errD_int                                 0x20000d34   Data           4  pid_control.o(.data)
    errI_int                                 0x20000d38   Data           4  pid_control.o(.data)
    pitch_external                           0x20000d3c   Data           4  pid_control.o(.data)
    errP                                     0x20000d40   Data           4  pid_control.o(.data)
    errD                                     0x20000d44   Data           4  pid_control.o(.data)
    errI                                     0x20000d48   Data           4  pid_control.o(.data)
    errP_int                                 0x20000d4c   Data           4  pid_control.o(.data)
    errD_int                                 0x20000d50   Data           4  pid_control.o(.data)
    errI_int                                 0x20000d54   Data           4  pid_control.o(.data)
    yaw_external                             0x20000d58   Data           4  pid_control.o(.data)
    errP                                     0x20000d5c   Data           4  pid_control.o(.data)
    errD                                     0x20000d60   Data           4  pid_control.o(.data)
    errI                                     0x20000d64   Data           4  pid_control.o(.data)
    errP_int                                 0x20000d68   Data           4  pid_control.o(.data)
    errD_int                                 0x20000d6c   Data           4  pid_control.o(.data)
    errI_int                                 0x20000d70   Data           4  pid_control.o(.data)
    .data                                    0x20000d74   Section        4  stdout.o(.data)
    .data                                    0x20000d78   Section        4  errno.o(.data)
    _errno                                   0x20000d78   Data           4  errno.o(.data)
    .bss                                     0x20000d7c   Section     5000  gpio_config.o(.bss)
    .bss                                     0x20002104   Section       84  data_exchang.o(.bss)
    .bss                                     0x20002158   Section       84  flash_rw.o(.bss)
    .bss                                     0x200021ac   Section      276  pid_control.o(.bss)
    spend_err_roll_external                  0x200021ac   Data          12  pid_control.o(.bss)
    spend_err_roll_interior                  0x200021b8   Data          12  pid_control.o(.bss)
    spend_err_pitch_external                 0x200021c4   Data          12  pid_control.o(.bss)
    spend_err_pitch_interior                 0x200021d0   Data          12  pid_control.o(.bss)
    spend_err_yaw_external                   0x200021dc   Data          12  pid_control.o(.bss)
    spend_err_yaw_interior                   0x200021e8   Data          12  pid_control.o(.bss)
    STACK                                    0x200022c0   Section     1024  startup_stm32f10x_hd.o(STACK)

    Global Symbols

    Symbol Name                              Value     Ov Type        Size  Object(Section)

    BuildAttributes$$THM_ISAv4$P$D$K$B$S$PE$A:L22UL41UL21$X:L11$S22US41US21$IEEE1$IW$USESV6$~STKCKD$USESV7$~SHL$OTIME$ROPI$IEEEX$EBA8$MICROLIB$REQ8$PRES8$EABIv2 0x00000000   Number         0  anon$$obj.o ABSOLUTE
    __ARM_use_no_argv                        0x00000000   Number         0  main.o ABSOLUTE
    _printf_a                                0x00000000   Number         0  stubs.o ABSOLUTE
    _printf_c                                0x00000000   Number         0  stubs.o ABSOLUTE
    _printf_charcount                        0x00000000   Number         0  stubs.o ABSOLUTE
    _printf_d                                0x00000000   Number         0  stubs.o ABSOLUTE
    _printf_e                                0x00000000   Number         0  stubs.o ABSOLUTE
    _printf_f                                0x00000000   Number         0  stubs.o ABSOLUTE
    _printf_flags                            0x00000000   Number         0  stubs.o ABSOLUTE
    _printf_fp_dec                           0x00000000   Number         0  stubs.o ABSOLUTE
    _printf_fp_hex                           0x00000000   Number         0  stubs.o ABSOLUTE
    _printf_g                                0x00000000   Number         0  stubs.o ABSOLUTE
    _printf_i                                0x00000000   Number         0  stubs.o ABSOLUTE
    _printf_int_dec                          0x00000000   Number         0  stubs.o ABSOLUTE
    _printf_l                                0x00000000   Number         0  stubs.o ABSOLUTE
    _printf_lc                               0x00000000   Number         0  stubs.o ABSOLUTE
    _printf_ll                               0x00000000   Number         0  stubs.o ABSOLUTE
    _printf_lld                              0x00000000   Number         0  stubs.o ABSOLUTE
    _printf_lli                              0x00000000   Number         0  stubs.o ABSOLUTE
    _printf_llo                              0x00000000   Number         0  stubs.o ABSOLUTE
    _printf_llu                              0x00000000   Number         0  stubs.o ABSOLUTE
    _printf_llx                              0x00000000   Number         0  stubs.o ABSOLUTE
    _printf_longlong_dec                     0x00000000   Number         0  stubs.o ABSOLUTE
    _printf_longlong_hex                     0x00000000   Number         0  stubs.o ABSOLUTE
    _printf_longlong_oct                     0x00000000   Number         0  stubs.o ABSOLUTE
    _printf_ls                               0x00000000   Number         0  stubs.o ABSOLUTE
    _printf_mbtowc                           0x00000000   Number         0  stubs.o ABSOLUTE
    _printf_n                                0x00000000   Number         0  stubs.o ABSOLUTE
    _printf_o                                0x00000000   Number         0  stubs.o ABSOLUTE
    _printf_p                                0x00000000   Number         0  stubs.o ABSOLUTE
    _printf_percent                          0x00000000   Number         0  stubs.o ABSOLUTE
    _printf_pre_padding                      0x00000000   Number         0  stubs.o ABSOLUTE
    _printf_return_value                     0x00000000   Number         0  stubs.o ABSOLUTE
    _printf_s                                0x00000000   Number         0  stubs.o ABSOLUTE
    _printf_sizespec                         0x00000000   Number         0  stubs.o ABSOLUTE
    _printf_str                              0x00000000   Number         0  stubs.o ABSOLUTE
    _printf_truncate_signed                  0x00000000   Number         0  stubs.o ABSOLUTE
    _printf_truncate_unsigned                0x00000000   Number         0  stubs.o ABSOLUTE
    _printf_u                                0x00000000   Number         0  stubs.o ABSOLUTE
    _printf_wc                               0x00000000   Number         0  stubs.o ABSOLUTE
    _printf_wctomb                           0x00000000   Number         0  stubs.o ABSOLUTE
    _printf_widthprec                        0x00000000   Number         0  stubs.o ABSOLUTE
    _printf_x                                0x00000000   Number         0  stubs.o ABSOLUTE
    __cpp_initialize__aeabi_                  - Undefined Weak Reference
    __cxa_finalize                            - Undefined Weak Reference
    _clock_init                               - Undefined Weak Reference
    _microlib_exit                            - Undefined Weak Reference
    __Vectors_Size                           0x00000130   Number         0  startup_stm32f10x_hd.o ABSOLUTE
    __Vectors                                0x08000000   Data           4  startup_stm32f10x_hd.o(RESET)
    __Vectors_End                            0x08000130   Data           0  startup_stm32f10x_hd.o(RESET)
    __main                                   0x08000131   Thumb Code     0  entry.o(.ARM.Collect$$$$00000000)
    _main_stk                                0x08000131   Thumb Code     0  entry2.o(.ARM.Collect$$$$00000001)
    _main_scatterload                        0x08000135   Thumb Code     0  entry5.o(.ARM.Collect$$$$00000004)
    __main_after_scatterload                 0x08000139   Thumb Code     0  entry5.o(.ARM.Collect$$$$00000004)
    _main_clock                              0x08000139   Thumb Code     0  entry7b.o(.ARM.Collect$$$$00000008)
    _main_cpp_init                           0x08000139   Thumb Code     0  entry8b.o(.ARM.Collect$$$$0000000A)
    _main_init                               0x08000139   Thumb Code     0  entry9a.o(.ARM.Collect$$$$0000000B)
    __rt_final_cpp                           0x08000141   Thumb Code     0  entry10a.o(.ARM.Collect$$$$0000000D)
    __rt_final_exit                          0x08000141   Thumb Code     0  entry11a.o(.ARM.Collect$$$$0000000F)
    Reset_Handler                            0x08000145   Thumb Code     8  startup_stm32f10x_hd.o(.text)
    ADC1_2_IRQHandler                        0x0800015f   Thumb Code     0  startup_stm32f10x_hd.o(.text)
    ADC3_IRQHandler                          0x0800015f   Thumb Code     0  startup_stm32f10x_hd.o(.text)
    CAN1_RX1_IRQHandler                      0x0800015f   Thumb Code     0  startup_stm32f10x_hd.o(.text)
    CAN1_SCE_IRQHandler                      0x0800015f   Thumb Code     0  startup_stm32f10x_hd.o(.text)
    DMA1_Channel1_IRQHandler                 0x0800015f   Thumb Code     0  startup_stm32f10x_hd.o(.text)
    DMA1_Channel2_IRQHandler                 0x0800015f   Thumb Code     0  startup_stm32f10x_hd.o(.text)
    DMA1_Channel3_IRQHandler                 0x0800015f   Thumb Code     0  startup_stm32f10x_hd.o(.text)
    DMA1_Channel4_IRQHandler                 0x0800015f   Thumb Code     0  startup_stm32f10x_hd.o(.text)
    DMA1_Channel5_IRQHandler                 0x0800015f   Thumb Code     0  startup_stm32f10x_hd.o(.text)
    DMA1_Channel6_IRQHandler                 0x0800015f   Thumb Code     0  startup_stm32f10x_hd.o(.text)
    DMA1_Channel7_IRQHandler                 0x0800015f   Thumb Code     0  startup_stm32f10x_hd.o(.text)
    DMA2_Channel1_IRQHandler                 0x0800015f   Thumb Code     0  startup_stm32f10x_hd.o(.text)
    DMA2_Channel2_IRQHandler                 0x0800015f   Thumb Code     0  startup_stm32f10x_hd.o(.text)
    DMA2_Channel3_IRQHandler                 0x0800015f   Thumb Code     0  startup_stm32f10x_hd.o(.text)
    DMA2_Channel4_5_IRQHandler               0x0800015f   Thumb Code     0  startup_stm32f10x_hd.o(.text)
    EXTI0_IRQHandler                         0x0800015f   Thumb Code     0  startup_stm32f10x_hd.o(.text)
    EXTI2_IRQHandler                         0x0800015f   Thumb Code     0  startup_stm32f10x_hd.o(.text)
    EXTI3_IRQHandler                         0x0800015f   Thumb Code     0  startup_stm32f10x_hd.o(.text)
    EXTI4_IRQHandler                         0x0800015f   Thumb Code     0  startup_stm32f10x_hd.o(.text)
    EXTI9_5_IRQHandler                       0x0800015f   Thumb Code     0  startup_stm32f10x_hd.o(.text)
    FLASH_IRQHandler                         0x0800015f   Thumb Code     0  startup_stm32f10x_hd.o(.text)
    FSMC_IRQHandler                          0x0800015f   Thumb Code     0  startup_stm32f10x_hd.o(.text)
    I2C1_ER_IRQHandler                       0x0800015f   Thumb Code     0  startup_stm32f10x_hd.o(.text)
    I2C1_EV_IRQHandler                       0x0800015f   Thumb Code     0  startup_stm32f10x_hd.o(.text)
    I2C2_ER_IRQHandler                       0x0800015f   Thumb Code     0  startup_stm32f10x_hd.o(.text)
    I2C2_EV_IRQHandler                       0x0800015f   Thumb Code     0  startup_stm32f10x_hd.o(.text)
    PVD_IRQHandler                           0x0800015f   Thumb Code     0  startup_stm32f10x_hd.o(.text)
    RCC_IRQHandler                           0x0800015f   Thumb Code     0  startup_stm32f10x_hd.o(.text)
    RTCAlarm_IRQHandler                      0x0800015f   Thumb Code     0  startup_stm32f10x_hd.o(.text)
    RTC_IRQHandler                           0x0800015f   Thumb Code     0  startup_stm32f10x_hd.o(.text)
    SDIO_IRQHandler                          0x0800015f   Thumb Code     0  startup_stm32f10x_hd.o(.text)
    SPI1_IRQHandler                          0x0800015f   Thumb Code     0  startup_stm32f10x_hd.o(.text)
    SPI2_IRQHandler                          0x0800015f   Thumb Code     0  startup_stm32f10x_hd.o(.text)
    SPI3_IRQHandler                          0x0800015f   Thumb Code     0  startup_stm32f10x_hd.o(.text)
    TAMPER_IRQHandler                        0x0800015f   Thumb Code     0  startup_stm32f10x_hd.o(.text)
    TIM1_BRK_IRQHandler                      0x0800015f   Thumb Code     0  startup_stm32f10x_hd.o(.text)
    TIM1_CC_IRQHandler                       0x0800015f   Thumb Code     0  startup_stm32f10x_hd.o(.text)
    TIM1_TRG_COM_IRQHandler                  0x0800015f   Thumb Code     0  startup_stm32f10x_hd.o(.text)
    TIM1_UP_IRQHandler                       0x0800015f   Thumb Code     0  startup_stm32f10x_hd.o(.text)
    TIM2_IRQHandler                          0x0800015f   Thumb Code     0  startup_stm32f10x_hd.o(.text)
    TIM3_IRQHandler                          0x0800015f   Thumb Code     0  startup_stm32f10x_hd.o(.text)
    TIM4_IRQHandler                          0x0800015f   Thumb Code     0  startup_stm32f10x_hd.o(.text)
    TIM5_IRQHandler                          0x0800015f   Thumb Code     0  startup_stm32f10x_hd.o(.text)
    TIM7_IRQHandler                          0x0800015f   Thumb Code     0  startup_stm32f10x_hd.o(.text)
    TIM8_BRK_IRQHandler                      0x0800015f   Thumb Code     0  startup_stm32f10x_hd.o(.text)
    TIM8_CC_IRQHandler                       0x0800015f   Thumb Code     0  startup_stm32f10x_hd.o(.text)
    TIM8_TRG_COM_IRQHandler                  0x0800015f   Thumb Code     0  startup_stm32f10x_hd.o(.text)
    TIM8_UP_IRQHandler                       0x0800015f   Thumb Code     0  startup_stm32f10x_hd.o(.text)
    UART4_IRQHandler                         0x0800015f   Thumb Code     0  startup_stm32f10x_hd.o(.text)
    UART5_IRQHandler                         0x0800015f   Thumb Code     0  startup_stm32f10x_hd.o(.text)
    USART1_IRQHandler                        0x0800015f   Thumb Code     0  startup_stm32f10x_hd.o(.text)
    USART2_IRQHandler                        0x0800015f   Thumb Code     0  startup_stm32f10x_hd.o(.text)
    USART3_IRQHandler                        0x0800015f   Thumb Code     0  startup_stm32f10x_hd.o(.text)
    USBWakeUp_IRQHandler                     0x0800015f   Thumb Code     0  startup_stm32f10x_hd.o(.text)
    USB_HP_CAN1_TX_IRQHandler                0x0800015f   Thumb Code     0  startup_stm32f10x_hd.o(.text)
    USB_LP_CAN1_RX0_IRQHandler               0x0800015f   Thumb Code     0  startup_stm32f10x_hd.o(.text)
    WWDG_IRQHandler                          0x0800015f   Thumb Code     0  startup_stm32f10x_hd.o(.text)
    __aeabi_fadd                             0x08000169   Thumb Code   164  fadd.o(.text)
    __aeabi_fsub                             0x0800020d   Thumb Code     6  fadd.o(.text)
    __aeabi_frsub                            0x08000213   Thumb Code     6  fadd.o(.text)
    __aeabi_fmul                             0x08000219   Thumb Code   100  fmul.o(.text)
    __aeabi_fdiv                             0x0800027d   Thumb Code   124  fdiv.o(.text)
    __aeabi_dadd                             0x080002f9   Thumb Code   322  dadd.o(.text)
    __aeabi_dsub                             0x0800043b   Thumb Code     6  dadd.o(.text)
    __aeabi_drsub                            0x08000441   Thumb Code     6  dadd.o(.text)
    __aeabi_dmul                             0x08000447   Thumb Code   228  dmul.o(.text)
    __aeabi_ddiv                             0x0800052b   Thumb Code   222  ddiv.o(.text)
    __aeabi_i2f                              0x08000609   Thumb Code    18  fflti.o(.text)
    __aeabi_ui2f                             0x0800061b   Thumb Code    10  ffltui.o(.text)
    __aeabi_i2d                              0x08000625   Thumb Code    34  dflti.o(.text)
    __aeabi_ui2d                             0x08000647   Thumb Code    26  dfltui.o(.text)
    __aeabi_f2iz                             0x08000661   Thumb Code    50  ffixi.o(.text)
    __aeabi_d2iz                             0x08000693   Thumb Code    62  dfixi.o(.text)
    __aeabi_d2uiz                            0x080006d1   Thumb Code    50  dfixui.o(.text)
    __aeabi_f2d                              0x08000703   Thumb Code    38  f2d.o(.text)
    __aeabi_cdcmpeq                          0x08000729   Thumb Code     0  cdcmple.o(.text)
    __aeabi_cdcmple                          0x08000729   Thumb Code    48  cdcmple.o(.text)
    __aeabi_cdrcmple                         0x08000759   Thumb Code    48  cdrcmple.o(.text)
    __aeabi_d2f                              0x08000789   Thumb Code    56  d2f.o(.text)
    __aeabi_cfcmpeq                          0x080007c1   Thumb Code     0  cfcmple.o(.text)
    __aeabi_cfcmple                          0x080007c1   Thumb Code    20  cfcmple.o(.text)
    __aeabi_cfrcmple                         0x080007d5   Thumb Code    20  cfrcmple.o(.text)
    __aeabi_uidiv                            0x080007e9   Thumb Code     0  uidiv.o(.text)
    __aeabi_uidivmod                         0x080007e9   Thumb Code    44  uidiv.o(.text)
    __aeabi_uldivmod                         0x08000815   Thumb Code    98  uldiv.o(.text)
    __aeabi_llsl                             0x08000877   Thumb Code    30  llshl.o(.text)
    _ll_shift_l                              0x08000877   Thumb Code     0  llshl.o(.text)
    __aeabi_llsr                             0x08000895   Thumb Code    32  llushr.o(.text)
    _ll_ushift_r                             0x08000895   Thumb Code     0  llushr.o(.text)
    __aeabi_lasr                             0x080008b5   Thumb Code    36  llsshr.o(.text)
    _ll_sshift_r                             0x080008b5   Thumb Code     0  llsshr.o(.text)
    __I$use$fp                               0x080008d9   Thumb Code     0  iusefp.o(.text)
    _float_round                             0x080008d9   Thumb Code    18  fepilogue.o(.text)
    _float_epilogue                          0x080008eb   Thumb Code    92  fepilogue.o(.text)
    _fsqrt                                   0x08000947   Thumb Code    94  fsqrt.o(.text)
    _double_round                            0x080009a5   Thumb Code    30  depilogue.o(.text)
    _double_epilogue                         0x080009c3   Thumb Code   156  depilogue.o(.text)
    __ARM_scalbn                             0x08000a5f   Thumb Code    46  dscalb.o(.text)
    scalbn                                   0x08000a5f   Thumb Code     0  dscalb.o(.text)
    _dsqrt                                   0x08000a8d   Thumb Code   162  dsqrt.o(.text)
    __aeabi_d2ulz                            0x08000b2f   Thumb Code    48  dfixul.o(.text)
    __scatterload                            0x08000b61   Thumb Code    28  init.o(.text)
    __scatterload_rt2                        0x08000b61   Thumb Code     0  init.o(.text)
    __decompress                             0x08000b85   Thumb Code     0  __dczerorl2.o(.text)
    __decompress1                            0x08000b85   Thumb Code    86  __dczerorl2.o(.text)
    ADC1_Init                                0x08000c0d   Thumb Code    12  adc_dma.o(i.ADC1_Init)
    ADC_Cmd                                  0x08000cf9   Thumb Code    22  stm32f10x_adc.o(i.ADC_Cmd)
    ADC_DMACmd                               0x08000d0f   Thumb Code    22  stm32f10x_adc.o(i.ADC_DMACmd)
    ADC_GetCalibrationStatus                 0x08000d25   Thumb Code    20  stm32f10x_adc.o(i.ADC_GetCalibrationStatus)
    ADC_GetResetCalibrationStatus            0x08000d39   Thumb Code    20  stm32f10x_adc.o(i.ADC_GetResetCalibrationStatus)
    ADC_Init                                 0x08000d4d   Thumb Code    70  stm32f10x_adc.o(i.ADC_Init)
    ADC_RegularChannelConfig                 0x08000d9d   Thumb Code   184  stm32f10x_adc.o(i.ADC_RegularChannelConfig)
    ADC_ResetCalibration                     0x08000e55   Thumb Code    10  stm32f10x_adc.o(i.ADC_ResetCalibration)
    ADC_SoftwareStartConvCmd                 0x08000e5f   Thumb Code    22  stm32f10x_adc.o(i.ADC_SoftwareStartConvCmd)
    ADC_StartCalibration                     0x08000e75   Thumb Code    10  stm32f10x_adc.o(i.ADC_StartCalibration)
    AHRSupdate                               0x08000e81   Thumb Code  2832  ahrs.o(i.AHRSupdate)
    BMP280_GetPressure                       0x080019b1   Thumb Code   972  bmp_280.o(i.BMP280_GetPressure)
    BMP280_GetTemperature                    0x08001dd9   Thumb Code   402  bmp_280.o(i.BMP280_GetTemperature)
    BMP280_Init                              0x08001f95   Thumb Code    14  bmp_280.o(i.BMP280_Init)
    BusFault_Handler                         0x08001fa3   Thumb Code     4  stm32f10x_it.o(i.BusFault_Handler)
    DATA_Kalman_Filter                       0x08001fa9   Thumb Code   140  kalman_filter.o(i.DATA_Kalman_Filter)
    DMA_Cmd                                  0x08002045   Thumb Code    24  stm32f10x_dma.o(i.DMA_Cmd)
    DMA_DeInit                               0x0800205d   Thumb Code   324  stm32f10x_dma.o(i.DMA_DeInit)
    DMA_Init                                 0x080021a9   Thumb Code    60  stm32f10x_dma.o(i.DMA_Init)
    DebugMon_Handler                         0x080021e5   Thumb Code     2  stm32f10x_it.o(i.DebugMon_Handler)
    DelayTime_us                             0x080021e7   Thumb Code    22  ultrasonicwave.o(i.DelayTime_us)
    Delay_600ns                              0x080021fd   Thumb Code    18  i2c.o(i.Delay_600ns)
    Delay_ms                                 0x0800220f   Thumb Code    24  bsp_systick.o(i.Delay_ms)
    Delay_us                                 0x08002229   Thumb Code    36  bsp_systick.o(i.Delay_us)
    EXTI15_10_IRQHandler                     0x08002251   Thumb Code   168  stm32f10x_it.o(i.EXTI15_10_IRQHandler)
    EXTI1_IRQHandler                         0x0800230d   Thumb Code    58  stm32f10x_it.o(i.EXTI1_IRQHandler)
    EXTI_ClearITPendingBit                   0x08002355   Thumb Code     6  stm32f10x_exti.o(i.EXTI_ClearITPendingBit)
    EXTI_GetITStatus                         0x08002361   Thumb Code    34  stm32f10x_exti.o(i.EXTI_GetITStatus)
    EXTI_Init                                0x08002389   Thumb Code   142  stm32f10x_exti.o(i.EXTI_Init)
    EXTI_PB15_Config                         0x0800241d   Thumb Code    76  irda.o(i.EXTI_PB15_Config)
    EXTI_PB1_Config                          0x0800246d   Thumb Code    72  bsp_exti.o(i.EXTI_PB1_Config)
    FLASH_ClearFlag                          0x080024b9   Thumb Code     6  stm32f10x_flash.o(i.FLASH_ClearFlag)
    FLASH_ErasePage                          0x080024c5   Thumb Code    72  stm32f10x_flash.o(i.FLASH_ErasePage)
    FLASH_GetBank1Status                     0x08002511   Thumb Code    48  stm32f10x_flash.o(i.FLASH_GetBank1Status)
    FLASH_LockBank1                          0x08002545   Thumb Code    14  stm32f10x_flash.o(i.FLASH_LockBank1)
    FLASH_ProgramWord                        0x08002559   Thumb Code   102  stm32f10x_flash.o(i.FLASH_ProgramWord)
    FLASH_UnlockBank1                        0x080025c5   Thumb Code    12  stm32f10x_flash.o(i.FLASH_UnlockBank1)
    FLASH_WaitForLastOperation               0x080025dd   Thumb Code    38  stm32f10x_flash.o(i.FLASH_WaitForLastOperation)
    Flash_data_init                          0x08002605   Thumb Code   606  flash_rw.o(i.Flash_data_init)
    GPIO_EXTILineConfig                      0x08002945   Thumb Code    60  stm32f10x_gpio.o(i.GPIO_EXTILineConfig)
    GPIO_Init                                0x08002985   Thumb Code   278  stm32f10x_gpio.o(i.GPIO_Init)
    GPIO_PinRemapConfig                      0x08002a9d   Thumb Code   138  stm32f10x_gpio.o(i.GPIO_PinRemapConfig)
    GPIO_ReadInputDataBit                    0x08002b2d   Thumb Code    18  stm32f10x_gpio.o(i.GPIO_ReadInputDataBit)
    GPIO_ResetBits                           0x08002b3f   Thumb Code     4  stm32f10x_gpio.o(i.GPIO_ResetBits)
    GPIO_SetBits                             0x08002b43   Thumb Code     4  stm32f10x_gpio.o(i.GPIO_SetBits)
    Get_Pulse_Time                           0x08002b49   Thumb Code    42  irda.o(i.Get_Pulse_Time)
    HardFault_Handler                        0x08002b79   Thumb Code     4  stm32f10x_it.o(i.HardFault_Handler)
    I2C_RecvByte                             0x08002b7d   Thumb Code    72  i2c.o(i.I2C_RecvByte)
    I2C_SendACK                              0x08002bc9   Thumb Code    40  i2c.o(i.I2C_SendACK)
    I2C_SendByte                             0x08002bf5   Thumb Code    86  i2c.o(i.I2C_SendByte)
    I2C_Start                                0x08002c51   Thumb Code    54  i2c.o(i.I2C_Start)
    I2C_Stop                                 0x08002c8d   Thumb Code    34  i2c.o(i.I2C_Stop)
    IIC_ReadData                             0x08002cb5   Thumb Code    84  i2c.o(i.IIC_ReadData)
    IIC_add_WriteI2C                         0x08002d09   Thumb Code    36  i2c.o(i.IIC_add_WriteI2C)
    IrDa_Init                                0x08002d2d   Thumb Code     8  irda.o(i.IrDa_Init)
    IrDa_Process                             0x08002d35   Thumb Code    60  irda.o(i.IrDa_Process)
    LED_GPIO_Config                          0x08002fa1   Thumb Code    46  led_config.o(i.LED_GPIO_Config)
    MAG_data                                 0x08002fd5   Thumb Code    94  data_exchang.o(i.MAG_data)
    MENU_1                                   0x08003045   Thumb Code   452  init_set.o(i.MENU_1)
    MENU_1_1                                 0x08003239   Thumb Code   920  init_set.o(i.MENU_1_1)
    MENU_1_2                                 0x08003611   Thumb Code  1388  init_set.o(i.MENU_1_2)
    MENU_1_3                                 0x08003bb5   Thumb Code   360  init_set.o(i.MENU_1_3)
    MENU_1_3_1                               0x08003d45   Thumb Code   920  init_set.o(i.MENU_1_3_1)
    MENU_1_3_2                               0x0800411d   Thumb Code  1388  init_set.o(i.MENU_1_3_2)
    MENU_2                                   0x080046c1   Thumb Code   140  init_set.o(i.MENU_2)
    MENU_3                                   0x08004761   Thumb Code   398  init_set.o(i.MENU_3)
    MENU_3_1                                 0x080048fd   Thumb Code   532  init_set.o(i.MENU_3_1)
    MENU_3_2                                 0x08004b55   Thumb Code   446  init_set.o(i.MENU_3_2)
    MPU6050ReadAcc                           0x08004d61   Thumb Code    66  mpu6050.o(i.MPU6050ReadAcc)
    MPU6050ReadGyro                          0x08004da3   Thumb Code    66  mpu6050.o(i.MPU6050ReadGyro)
    MPU6050Read_all                          0x08004de5   Thumb Code   134  mpu6050.o(i.MPU6050Read_all)
    MPU6050_Init                             0x08004e6b   Thumb Code   156  mpu6050.o(i.MPU6050_Init)
    MPU9250ReadMag                           0x08004f07   Thumb Code    76  mpu6050.o(i.MPU9250ReadMag)
    MemManage_Handler                        0x08004f53   Thumb Code     4  stm32f10x_it.o(i.MemManage_Handler)
    NMI_Handler                              0x08004f57   Thumb Code     2  stm32f10x_it.o(i.NMI_Handler)
    NVIC_Init                                0x08004f85   Thumb Code   100  misc.o(i.NVIC_Init)
    NVIC_PriorityGroupConfig                 0x08004ff5   Thumb Code    10  misc.o(i.NVIC_PriorityGroupConfig)
    OLED_Clear                               0x08005009   Thumb Code    64  oled.o(i.OLED_Clear)
    OLED_Init                                0x08005049   Thumb Code   338  oled.o(i.OLED_Init)
    OLED_Set_Pos                             0x080051ad   Thumb Code    46  oled.o(i.OLED_Set_Pos)
    OLED_ShowCHinese                         0x080051dd   Thumb Code    98  oled.o(i.OLED_ShowCHinese)
    OLED_ShowCHinese_inverse                 0x08005245   Thumb Code   106  oled.o(i.OLED_ShowCHinese_inverse)
    OLED_ShowChar                            0x080052b5   Thumb Code   106  oled.o(i.OLED_ShowChar)
    OLED_ShowNum                             0x08005325   Thumb Code   132  oled.o(i.OLED_ShowNum)
    OLED_ShowString                          0x080053a9   Thumb Code    54  oled.o(i.OLED_ShowString)
    OLED_WR_Byte                             0x080053e1   Thumb Code   126  oled.o(i.OLED_WR_Byte)
    PID_control                              0x08005491   Thumb Code   130  pid_control.o(i.PID_control)
    PID_pitch_Control                        0x08005535   Thumb Code   586  pid_control.o(i.PID_pitch_Control)
    PID_roll_Control                         0x08005815   Thumb Code   580  pid_control.o(i.PID_roll_Control)
    PID_yaw_Control                          0x08005af1   Thumb Code   672  pid_control.o(i.PID_yaw_Control)
    PWM_control                              0x08005e09   Thumb Code   342  pid_control.o(i.PWM_control)
    PendSV_Handler                           0x08005f81   Thumb Code     2  stm32f10x_it.o(i.PendSV_Handler)
    RCC_ADCCLKConfig                         0x08005f85   Thumb Code    18  stm32f10x_rcc.o(i.RCC_ADCCLKConfig)
    RCC_AHBPeriphClockCmd                    0x08005f9d   Thumb Code    26  stm32f10x_rcc.o(i.RCC_AHBPeriphClockCmd)
    RCC_APB1PeriphClockCmd                   0x08005fbd   Thumb Code    26  stm32f10x_rcc.o(i.RCC_APB1PeriphClockCmd)
    RCC_APB1PeriphResetCmd                   0x08005fdd   Thumb Code    26  stm32f10x_rcc.o(i.RCC_APB1PeriphResetCmd)
    RCC_APB2PeriphClockCmd                   0x08005ffd   Thumb Code    26  stm32f10x_rcc.o(i.RCC_APB2PeriphClockCmd)
    RCC_APB2PeriphResetCmd                   0x0800601d   Thumb Code    26  stm32f10x_rcc.o(i.RCC_APB2PeriphResetCmd)
    RCC_GetClocksFreq                        0x0800603d   Thumb Code   192  stm32f10x_rcc.o(i.RCC_GetClocksFreq)
    ReadFlashNBtye                           0x08006111   Thumb Code    28  flash_rw.o(i.ReadFlashNBtye)
    SPI_Cmd                                  0x08006131   Thumb Code    24  stm32f10x_spi.o(i.SPI_Cmd)
    SPI_DATA_Init                            0x08006149   Thumb Code   192  gpio_config.o(i.SPI_DATA_Init)
    SPI_FLASH_SendByte                       0x08006215   Thumb Code    50  gpio_config.o(i.SPI_FLASH_SendByte)
    SPI_I2S_GetFlagStatus                    0x0800624d   Thumb Code    18  stm32f10x_spi.o(i.SPI_I2S_GetFlagStatus)
    SPI_I2S_ReceiveData                      0x0800625f   Thumb Code     6  stm32f10x_spi.o(i.SPI_I2S_ReceiveData)
    SPI_I2S_SendData                         0x08006265   Thumb Code     4  stm32f10x_spi.o(i.SPI_I2S_SendData)
    SPI_Init                                 0x08006269   Thumb Code    60  stm32f10x_spi.o(i.SPI_Init)
    SPI_Read_Buf                             0x080062a5   Thumb Code    58  nr24l01_reg.o(i.SPI_Read_Buf)
    SPI_Read_Reg                             0x080062e5   Thumb Code    36  nr24l01_reg.o(i.SPI_Read_Reg)
    SPI_Write_Buf                            0x0800630d   Thumb Code    56  nr24l01_reg.o(i.SPI_Write_Buf)
    SPI_Write_Reg                            0x08006349   Thumb Code    38  nr24l01_reg.o(i.SPI_Write_Reg)
    SVC_Handler                              0x08006375   Thumb Code     2  stm32f10x_it.o(i.SVC_Handler)
    SysTick_Handler                          0x08006461   Thumb Code     8  stm32f10x_it.o(i.SysTick_Handler)
    SysTick_Init                             0x08006469   Thumb Code   106  bsp_systick.o(i.SysTick_Init)
    SystemInit                               0x080064e5   Thumb Code    78  system_stm32f10x.o(i.SystemInit)
    TIM3_Mode_PWM1_Config                    0x0800658d   Thumb Code    98  pwm_config.o(i.TIM3_Mode_PWM1_Config)
    TIM3_Mode_PWM2_Config                    0x080065f5   Thumb Code    98  pwm_config.o(i.TIM3_Mode_PWM2_Config)
    TIM3_Mode_PWM3_Config                    0x0800665d   Thumb Code    98  pwm_config.o(i.TIM3_Mode_PWM3_Config)
    TIM3_Mode_PWM4_Config                    0x080066c5   Thumb Code    98  pwm_config.o(i.TIM3_Mode_PWM4_Config)
    TIM3_init                                0x0800672d   Thumb Code    40  pwm_config.o(i.TIM3_init)
    TIM6_Configuration                       0x08006755   Thumb Code    78  bsp_timbase.o(i.TIM6_Configuration)
    TIM6_IRQHandler                          0x080067a9   Thumb Code   222  stm32f10x_it.o(i.TIM6_IRQHandler)
    TIM6_NVIC_Configuration                  0x080068c1   Thumb Code    42  bsp_timbase.o(i.TIM6_NVIC_Configuration)
    TIM7_Configuration                       0x080068ed   Thumb Code    60  tim_time.o(i.TIM7_Configuration)
    TIM_ARRPreloadConfig                     0x0800692d   Thumb Code    24  stm32f10x_tim.o(i.TIM_ARRPreloadConfig)
    TIM_ClearFlag                            0x08006945   Thumb Code     6  stm32f10x_tim.o(i.TIM_ClearFlag)
    TIM_ClearITPendingBit                    0x0800694b   Thumb Code     6  stm32f10x_tim.o(i.TIM_ClearITPendingBit)
    TIM_Cmd                                  0x08006951   Thumb Code    24  stm32f10x_tim.o(i.TIM_Cmd)
    TIM_DeInit                               0x08006969   Thumb Code   424  stm32f10x_tim.o(i.TIM_DeInit)
    TIM_GetCounter                           0x08006b51   Thumb Code     6  stm32f10x_tim.o(i.TIM_GetCounter)
    TIM_GetITStatus                          0x08006b57   Thumb Code    34  stm32f10x_tim.o(i.TIM_GetITStatus)
    TIM_ITConfig                             0x08006b79   Thumb Code    18  stm32f10x_tim.o(i.TIM_ITConfig)
    TIM_OC1Init                              0x08006b8d   Thumb Code   132  stm32f10x_tim.o(i.TIM_OC1Init)
    TIM_OC1PreloadConfig                     0x08006c25   Thumb Code    18  stm32f10x_tim.o(i.TIM_OC1PreloadConfig)
    TIM_OC2Init                              0x08006c39   Thumb Code   154  stm32f10x_tim.o(i.TIM_OC2Init)
    TIM_OC2PreloadConfig                     0x08006cdd   Thumb Code    26  stm32f10x_tim.o(i.TIM_OC2PreloadConfig)
    TIM_OC3Init                              0x08006cf9   Thumb Code   150  stm32f10x_tim.o(i.TIM_OC3Init)
    TIM_OC3PreloadConfig                     0x08006d99   Thumb Code    18  stm32f10x_tim.o(i.TIM_OC3PreloadConfig)
    TIM_OC4Init                              0x08006dad   Thumb Code   114  stm32f10x_tim.o(i.TIM_OC4Init)
    TIM_OC4PreloadConfig                     0x08006e29   Thumb Code    26  stm32f10x_tim.o(i.TIM_OC4PreloadConfig)
    TIM_SetCounter                           0x08006e43   Thumb Code     4  stm32f10x_tim.o(i.TIM_SetCounter)
    TIM_TimeBaseInit                         0x08006e49   Thumb Code   122  stm32f10x_tim.o(i.TIM_TimeBaseInit)
    TimingDelay_Decrement                    0x08006eed   Thumb Code    18  bsp_systick.o(i.TimingDelay_Decrement)
    USART1_Config                            0x08006f05   Thumb Code   114  gpio_config.o(i.USART1_Config)
    USART1_DMA_Config                        0x08006f81   Thumb Code    76  gpio_config.o(i.USART1_DMA_Config)
    USART_Cmd                                0x08006fd9   Thumb Code    24  stm32f10x_usart.o(i.USART_Cmd)
    USART_GetFlagStatus                      0x08006ff1   Thumb Code    26  stm32f10x_usart.o(i.USART_GetFlagStatus)
    USART_Init                               0x0800700d   Thumb Code   210  stm32f10x_usart.o(i.USART_Init)
    USART_SendData                           0x080070e5   Thumb Code     8  stm32f10x_usart.o(i.USART_SendData)
    UltrasonicWave_CalculateTime             0x080070ed   Thumb Code    32  ultrasonicwave.o(i.UltrasonicWave_CalculateTime)
    UltrasonicWave_Configuration             0x08007115   Thumb Code    38  ultrasonicwave.o(i.UltrasonicWave_Configuration)
    UltrasonicWave_OK                        0x08007141   Thumb Code    66  ultrasonicwave.o(i.UltrasonicWave_OK)
    UltrasonicWave_StartMeasure              0x08007195   Thumb Code    32  ultrasonicwave.o(i.UltrasonicWave_StartMeasure)
    UsageFault_Handler                       0x080071bd   Thumb Code     4  stm32f10x_it.o(i.UsageFault_Handler)
    WriteFlashOneWord                        0x080071c1   Thumb Code   378  flash_rw.o(i.WriteFlashOneWord)
    YAW_data_init                            0x08007399   Thumb Code    68  data_exchang.o(i.YAW_data_init)
    __0printf                                0x080073e9   Thumb Code    22  printfa.o(i.__0printf)
    __1printf                                0x080073e9   Thumb Code     0  printfa.o(i.__0printf)
    __2printf                                0x080073e9   Thumb Code     0  printfa.o(i.__0printf)
    __c89printf                              0x080073e9   Thumb Code     0  printfa.o(i.__0printf)
    printf                                   0x080073e9   Thumb Code     0  printfa.o(i.__0printf)
    __ARM_fpclassify                         0x08007409   Thumb Code    40  fpclassify.o(i.__ARM_fpclassify)
    __ieee754_rem_pio2                       0x08007431   Thumb Code   828  rred.o(i.__ieee754_rem_pio2)
    __kernel_cos                             0x080077b9   Thumb Code   230  cos_i.o(i.__kernel_cos)
    __kernel_poly                            0x080078b5   Thumb Code   170  poly.o(i.__kernel_poly)
    __kernel_sin                             0x08007961   Thumb Code   224  sin_i.o(i.__kernel_sin)
    __mathlib_dbl_infnan                     0x08007a4d   Thumb Code     6  dunder.o(i.__mathlib_dbl_infnan)
    __mathlib_dbl_infnan2                    0x08007a53   Thumb Code     4  dunder.o(i.__mathlib_dbl_infnan2)
    __mathlib_dbl_invalid                    0x08007a57   Thumb Code    12  dunder.o(i.__mathlib_dbl_invalid)
    __mathlib_dbl_underflow                  0x08007a65   Thumb Code    10  dunder.o(i.__mathlib_dbl_underflow)
    __scatterload_copy                       0x08007a75   Thumb Code    14  handlers.o(i.__scatterload_copy)
    __scatterload_null                       0x08007a83   Thumb Code     2  handlers.o(i.__scatterload_null)
    __scatterload_zeroinit                   0x08007a85   Thumb Code    14  handlers.o(i.__scatterload_zeroinit)
    __set_errno                              0x08007a95   Thumb Code     6  errno.o(i.__set_errno)
    asin                                     0x08008355   Thumb Code   572  asin.o(i.asin)
    atan                                     0x080085c5   Thumb Code   474  atan.o(i.atan)
    atan2                                    0x080087e5   Thumb Code   346  atan2.o(i.atan2)
    averag_gyro_X                            0x08008965   Thumb Code   156  pid_control.o(i.averag_gyro_X)
    averag_gyro_Y                            0x08008a0d   Thumb Code   156  pid_control.o(i.averag_gyro_Y)
    averag_gyro_Z                            0x08008ab5   Thumb Code   156  pid_control.o(i.averag_gyro_Z)
    calibration_GA                           0x08008b5d   Thumb Code   434  data_exchang.o(i.calibration_GA)
    calibration_Mag                          0x08008d4d   Thumb Code   606  data_exchang.o(i.calibration_Mag)
    complete_GA_data                         0x0800907d   Thumb Code   472  init_set.o(i.complete_GA_data)
    complete_data                            0x08009291   Thumb Code   466  init_set.o(i.complete_data)
    cos                                      0x0800949d   Thumb Code   148  cos.o(i.cos)
    data_chang                               0x08009539   Thumb Code   518  swap_data.o(i.data_chang)
    data_handling                            0x080097a1   Thumb Code   370  data_exchang.o(i.data_handling)
    data_init                                0x08009951   Thumb Code   142  data_exchang.o(i.data_init)
    data_turn                                0x08009a09   Thumb Code    48  flash_rw.o(i.data_turn)
    fputc                                    0x08009a3d   Thumb Code    32  gpio_config.o(i.fputc)
    get_nrf_sta                              0x08009a61   Thumb Code    22  nr24l01_reg.o(i.get_nrf_sta)
    gpio_i2c                                 0x08009a7d   Thumb Code    38  i2c.o(i.gpio_i2c)
    init_NRF24L01                            0x08009aa9   Thumb Code    94  nr24l01_reg.o(i.init_NRF24L01)
    init_quaternion                          0x08009b19   Thumb Code  2052  ahrs.o(i.init_quaternion)
    invSqrt                                  0x0800a365   Thumb Code    72  ahrs.o(i.invSqrt)
    main                                     0x0800a3b1   Thumb Code   242  main.o(i.main)
    nrf_RxMod                                0x0800a4b5   Thumb Code    40  nr24l01_reg.o(i.nrf_RxMod)
    nrf_TxMod                                0x0800a4e1   Thumb Code    40  nr24l01_reg.o(i.nrf_TxMod)
    nrf_read                                 0x0800a50d   Thumb Code    46  nr24l01_reg.o(i.nrf_read)
    nrf_trans                                0x0800a545   Thumb Code    54  nr24l01_reg.o(i.nrf_trans)
    oled_pow                                 0x0800a585   Thumb Code    22  oled.o(i.oled_pow)
    read_flash_data                          0x0800a59d   Thumb Code   224  flash_rw.o(i.read_flash_data)
    send_byte_USART1                         0x0800a6d5   Thumb Code    28  gpio_config.o(i.send_byte_USART1)
    send_line                                0x0800a6f5   Thumb Code   132  swap_data.o(i.send_line)
    set_data                                 0x0800a779   Thumb Code   654  init_set.o(i.set_data)
    sin                                      0x0800aa29   Thumb Code   150  sin.o(i.sin)
    sqrt                                     0x0800aac9   Thumb Code    76  sqrt.o(i.sqrt)
    sqrtf                                    0x0800ab15   Thumb Code    44  sqrtf.o(i.sqrtf)
    write_flash_data                         0x0800ab41   Thumb Code    12  flash_rw.o(i.write_flash_data)
    F6x8                                     0x0800ab4c   Data         552  oled.o(.constdata)
    F8X16                                    0x0800ad74   Data        1520  oled.o(.constdata)
    __mathlib_zero                           0x0800b480   Data           8  qnan.o(.constdata)
    Region$$Table$$Base                      0x0800b578   Number         0  anon$$obj.o(Region$$Table)
    Region$$Table$$Limit                     0x0800b598   Number         0  anon$$obj.o(Region$$Table)
    SystemCoreClock                          0x20000000   Data           4  system_stm32f10x.o(.data)
    AHBPrescTable                            0x20000004   Data          16  system_stm32f10x.o(.data)
    ADC_ConvertedValueLocal                  0x20000028   Data           8  main.o(.data)
    num                                      0x20000030   Data           1  main.o(.data)
    DeviceID                                 0x20000034   Data           4  main.o(.data)
    time                                     0x20000038   Data           4  main.o(.data)
    times                                    0x2000003c   Data           4  main.o(.data)
    rx_num                                   0x20000040   Data           1  stm32f10x_it.o(.data)
    isr_cnt                                  0x20000041   Data           1  stm32f10x_it.o(.data)
    TIME_AGM                                 0x20000042   Data           2  stm32f10x_it.o(.data)
    TIME_PID                                 0x20000044   Data           2  stm32f10x_it.o(.data)
    DATA_START                               0x20000046   Data           1  stm32f10x_it.o(.data)
    PRESS_START                              0x20000047   Data           1  stm32f10x_it.o(.data)
    Ultrasonic_START                         0x20000048   Data           1  stm32f10x_it.o(.data)
    AGM_START                                0x20000049   Data           1  stm32f10x_it.o(.data)
    TIME_20ms                                0x2000004a   Data           1  stm32f10x_it.o(.data)
    nrf_sta                                  0x2000004b   Data           1  nr24l01_reg.o(.data)
    RxBuf                                    0x2000004c   Data          32  nr24l01_reg.o(.data)
    TxBuf                                    0x2000006c   Data          32  nr24l01_reg.o(.data)
    TX_ADDRESS                               0x2000008c   Data           5  nr24l01_reg.o(.data)
    RX_ADDRESS                               0x20000091   Data           5  nr24l01_reg.o(.data)
    Hzk                                      0x2000009c   Data        2496  oled.o(.data)
    t_fine                                   0x20000a5c   Data           4  bmp_280.o(.data)
    temp_sb                                  0x20000a60   Data           4  bmp_280.o(.data)
    press_sb                                 0x20000a64   Data           4  bmp_280.o(.data)
    dig_T1                                   0x20000a68   Data           2  bmp_280.o(.data)
    dig_P1                                   0x20000a6a   Data           2  bmp_280.o(.data)
    dig_T2                                   0x20000a6c   Data           2  bmp_280.o(.data)
    dig_T3                                   0x20000a6e   Data           2  bmp_280.o(.data)
    dig_P2                                   0x20000a70   Data           2  bmp_280.o(.data)
    dig_P3                                   0x20000a72   Data           2  bmp_280.o(.data)
    dig_P4                                   0x20000a74   Data           2  bmp_280.o(.data)
    dig_P5                                   0x20000a76   Data           2  bmp_280.o(.data)
    dig_P6                                   0x20000a78   Data           2  bmp_280.o(.data)
    dig_P7                                   0x20000a7a   Data           2  bmp_280.o(.data)
    dig_P8                                   0x20000a7c   Data           2  bmp_280.o(.data)
    dig_P9                                   0x20000a7e   Data           2  bmp_280.o(.data)
    Pa                                       0x20000a80   Data           4  bmp_280.o(.data)
    ADC_ConvertedValue                       0x20000a84   Data           2  adc_dma.o(.data)
    Distance                                 0x20000a88   Data           2  ultrasonicwave.o(.data)
    UltrasonicWave_Distance                  0x20000a8a   Data           2  ultrasonicwave.o(.data)
    Ultrasonic                               0x20000a8c   Data           1  ultrasonicwave.o(.data)
    Ultrasonic_OK                            0x20000a8d   Data           1  ultrasonicwave.o(.data)
    U_num                                    0x20000a8e   Data           1  ultrasonicwave.o(.data)
    u_time                                   0x20000a90   Data           4  ultrasonicwave.o(.data)
    frame_data                               0x20000a94   Data           4  irda.o(.data)
    frame_cnt                                0x20000a98   Data           1  irda.o(.data)
    frame_flag                               0x20000a99   Data           1  irda.o(.data)
    key_val                                  0x20000a9a   Data           1  init_set.o(.data)
    screen                                   0x20000a9b   Data           1  init_set.o(.data)
    POWER_set                                0x20000a9c   Data           1  init_set.o(.data)
    Acel                                     0x20000aa0   Data           6  data_exchang.o(.data)
    Gyro                                     0x20000aa6   Data           6  data_exchang.o(.data)
    Mag                                      0x20000aac   Data           6  data_exchang.o(.data)
    TEMP                                     0x20000ab2   Data           2  data_exchang.o(.data)
    TEMP_280                                 0x20000ab8   Data           8  data_exchang.o(.data)
    Press                                    0x20000ac0   Data           4  data_exchang.o(.data)
    MAG                                      0x20000ac8   Data           8  data_exchang.o(.data)
    Xlast                                    0x20000ad0   Data           2  data_exchang.o(.data)
    Ylast                                    0x20000ad2   Data           2  data_exchang.o(.data)
    Zlast                                    0x20000ad4   Data           2  data_exchang.o(.data)
    Xmax                                     0x20000ad6   Data           2  data_exchang.o(.data)
    Ymax                                     0x20000ad8   Data           2  data_exchang.o(.data)
    Zmax                                     0x20000ada   Data           2  data_exchang.o(.data)
    Xmin                                     0x20000adc   Data           2  data_exchang.o(.data)
    Ymin                                     0x20000ade   Data           2  data_exchang.o(.data)
    Zmin                                     0x20000ae0   Data           2  data_exchang.o(.data)
    Xoffset                                  0x20000ae2   Data           2  data_exchang.o(.data)
    Yoffset                                  0x20000ae4   Data           2  data_exchang.o(.data)
    Zoffset                                  0x20000ae6   Data           2  data_exchang.o(.data)
    Xscope                                   0x20000ae8   Data           2  data_exchang.o(.data)
    Yscope                                   0x20000aea   Data           2  data_exchang.o(.data)
    Zscope                                   0x20000aec   Data           2  data_exchang.o(.data)
    Orien                                    0x20000af0   Data           8  data_exchang.o(.data)
    calibration_GA_time                      0x20000af8   Data           1  data_exchang.o(.data)
    average_GX                               0x20000afc   Data           4  data_exchang.o(.data)
    average_GY                               0x20000b00   Data           4  data_exchang.o(.data)
    average_GZ                               0x20000b04   Data           4  data_exchang.o(.data)
    average_AX                               0x20000b08   Data           4  data_exchang.o(.data)
    average_AY                               0x20000b0c   Data           4  data_exchang.o(.data)
    average_AZ                               0x20000b10   Data           4  data_exchang.o(.data)
    offset_GX                                0x20000b14   Data           2  data_exchang.o(.data)
    offset_GY                                0x20000b16   Data           2  data_exchang.o(.data)
    offset_GZ                                0x20000b18   Data           2  data_exchang.o(.data)
    offset_AX                                0x20000b1a   Data           2  data_exchang.o(.data)
    offset_AY                                0x20000b1c   Data           2  data_exchang.o(.data)
    offset_AZ                                0x20000b1e   Data           2  data_exchang.o(.data)
    ROL                                      0x20000b20   Data           4  swap_data.o(.data)
    PIT                                      0x20000b24   Data           4  swap_data.o(.data)
    YAW                                      0x20000b28   Data           4  swap_data.o(.data)
    Alt                                      0x20000b2c   Data           4  swap_data.o(.data)
    ALT_USE                                  0x20000b30   Data           4  swap_data.o(.data)
    ARMED                                    0x20000b34   Data           1  swap_data.o(.data)
    ACC_X                                    0x20000b36   Data           2  swap_data.o(.data)
    ACC_Y                                    0x20000b38   Data           2  swap_data.o(.data)
    ACC_Z                                    0x20000b3a   Data           2  swap_data.o(.data)
    GYRO_X                                   0x20000b3c   Data           2  swap_data.o(.data)
    GYRO_Y                                   0x20000b3e   Data           2  swap_data.o(.data)
    GYRO_Z                                   0x20000b40   Data           2  swap_data.o(.data)
    MAG_X                                    0x20000b42   Data           2  swap_data.o(.data)
    MAG_Y                                    0x20000b44   Data           2  swap_data.o(.data)
    MAG_Z                                    0x20000b46   Data           2  swap_data.o(.data)
    Acelx                                    0x20000b48   Data           2  swap_data.o(.data)
    Acely                                    0x20000b4a   Data           2  swap_data.o(.data)
    Acelz                                    0x20000b4c   Data           2  swap_data.o(.data)
    Gyrox                                    0x20000b4e   Data           2  swap_data.o(.data)
    Gyroy                                    0x20000b50   Data           2  swap_data.o(.data)
    Gyroz                                    0x20000b52   Data           2  swap_data.o(.data)
    Magx                                     0x20000b54   Data           2  swap_data.o(.data)
    Magy                                     0x20000b56   Data           2  swap_data.o(.data)
    Magz                                     0x20000b58   Data           2  swap_data.o(.data)
    RX_TEMP_280                              0x20000b60   Data           8  swap_data.o(.data)
    RX_ADC_ConvertedValue                    0x20000b68   Data           2  swap_data.o(.data)
    RX_num                                   0x20000b6a   Data           1  swap_data.o(.data)
    TX_num                                   0x20000b6b   Data           1  swap_data.o(.data)
    RX_ADC_ConvertedValueLocal               0x20000b70   Data           8  swap_data.o(.data)
    RX_Press                                 0x20000b78   Data           4  swap_data.o(.data)
    accelerator_IN                           0x20000b7c   Data           2  swap_data.o(.data)
    roll_IN                                  0x20000b7e   Data           2  swap_data.o(.data)
    pitch_IN                                 0x20000b80   Data           2  swap_data.o(.data)
    q0                                       0x20000b84   Data           4  ahrs.o(.data)
    q1                                       0x20000b88   Data           4  ahrs.o(.data)
    q2                                       0x20000b8c   Data           4  ahrs.o(.data)
    q3                                       0x20000b90   Data           4  ahrs.o(.data)
    exInt                                    0x20000b94   Data           4  ahrs.o(.data)
    eyInt                                    0x20000b98   Data           4  ahrs.o(.data)
    ezInt                                    0x20000b9c   Data           4  ahrs.o(.data)
    init_ax                                  0x20000ba0   Data           4  ahrs.o(.data)
    init_ay                                  0x20000ba4   Data           4  ahrs.o(.data)
    init_az                                  0x20000ba8   Data           4  ahrs.o(.data)
    init_gx                                  0x20000bac   Data           4  ahrs.o(.data)
    init_gy                                  0x20000bb0   Data           4  ahrs.o(.data)
    init_gz                                  0x20000bb4   Data           4  ahrs.o(.data)
    init_mx                                  0x20000bb8   Data           4  ahrs.o(.data)
    init_my                                  0x20000bbc   Data           4  ahrs.o(.data)
    init_mz                                  0x20000bc0   Data           4  ahrs.o(.data)
    FLASHStatus                              0x20000bc4   Data           1  flash_rw.o(.data)
    FLASH_MAG_X_DATA                         0x20000bc8   Data           4  flash_rw.o(.data)
    FLASH_MAG_Y_DATA                         0x20000bcc   Data           4  flash_rw.o(.data)
    FLASH_MAG_Z_DATA                         0x20000bd0   Data           4  flash_rw.o(.data)
    FLASH_Gyro_X_DATA                        0x20000bd4   Data           4  flash_rw.o(.data)
    FLASH_Gyro_Y_DATA                        0x20000bd8   Data           4  flash_rw.o(.data)
    FLASH_Gyro_Z_DATA                        0x20000bdc   Data           4  flash_rw.o(.data)
    FLASH_Acel_X_DATA                        0x20000be0   Data           4  flash_rw.o(.data)
    FLASH_Acel_Y_DATA                        0x20000be4   Data           4  flash_rw.o(.data)
    FLASH_Acel_Z_DATA                        0x20000be8   Data           4  flash_rw.o(.data)
    FLASH_INPID_P_DATA                       0x20000bec   Data           4  flash_rw.o(.data)
    FLASH_INPID_I_DATA                       0x20000bf0   Data           4  flash_rw.o(.data)
    FLASH_INPID_D_DATA                       0x20000bf4   Data           4  flash_rw.o(.data)
    FLASH_OUTPID_P_DATA                      0x20000bf8   Data           4  flash_rw.o(.data)
    FLASH_OUTPID_I_DATA                      0x20000bfc   Data           4  flash_rw.o(.data)
    FLASH_OUTPID_D_DATA                      0x20000c00   Data           4  flash_rw.o(.data)
    FLASH_YAWINPID_P_DATA                    0x20000c04   Data           4  flash_rw.o(.data)
    FLASH_YAWINPID_I_DATA                    0x20000c08   Data           4  flash_rw.o(.data)
    FLASH_YAWINPID_D_DATA                    0x20000c0c   Data           4  flash_rw.o(.data)
    FLASH_YAWOUTPID_P_DATA                   0x20000c10   Data           4  flash_rw.o(.data)
    FLASH_YAWOUTPID_I_DATA                   0x20000c14   Data           4  flash_rw.o(.data)
    FLASH_YAWOUTPID_D_DATA                   0x20000c18   Data           4  flash_rw.o(.data)
    ERR_STOP                                 0x20000c80   Data           1  pid_control.o(.data)
    external_KP                              0x20000c84   Data           4  pid_control.o(.data)
    external_KI                              0x20000c88   Data           4  pid_control.o(.data)
    external_KD                              0x20000c8c   Data           4  pid_control.o(.data)
    interior_KP                              0x20000c90   Data           4  pid_control.o(.data)
    interior_KI                              0x20000c94   Data           4  pid_control.o(.data)
    interior_KD                              0x20000c98   Data           4  pid_control.o(.data)
    external_KP_f                            0x20000c9c   Data           4  pid_control.o(.data)
    external_KI_f                            0x20000ca0   Data           4  pid_control.o(.data)
    external_KD_f                            0x20000ca4   Data           4  pid_control.o(.data)
    interior_KP_f                            0x20000ca8   Data           4  pid_control.o(.data)
    interior_KI_f                            0x20000cac   Data           4  pid_control.o(.data)
    interior_KD_f                            0x20000cb0   Data           4  pid_control.o(.data)
    YAWexternal_KP                           0x20000cb4   Data           4  pid_control.o(.data)
    YAWexternal_KI                           0x20000cb8   Data           4  pid_control.o(.data)
    YAWexternal_KD                           0x20000cbc   Data           4  pid_control.o(.data)
    YAWinterior_KP                           0x20000cc0   Data           4  pid_control.o(.data)
    YAWinterior_KI                           0x20000cc4   Data           4  pid_control.o(.data)
    YAWinterior_KD                           0x20000cc8   Data           4  pid_control.o(.data)
    YAWexternal_KP_f                         0x20000ccc   Data           4  pid_control.o(.data)
    YAWexternal_KI_f                         0x20000cd0   Data           4  pid_control.o(.data)
    YAWexternal_KD_f                         0x20000cd4   Data           4  pid_control.o(.data)
    YAWinterior_KP_f                         0x20000cd8   Data           4  pid_control.o(.data)
    YAWinterior_KI_f                         0x20000cdc   Data           4  pid_control.o(.data)
    YAWinterior_KD_f                         0x20000ce0   Data           4  pid_control.o(.data)
    roll_PWM                                 0x20000ce4   Data           4  pid_control.o(.data)
    pitch_PWM                                0x20000ce8   Data           4  pid_control.o(.data)
    roll_PWM_OUT                             0x20000cec   Data           2  pid_control.o(.data)
    pitch_PWM_OUT                            0x20000cee   Data           2  pid_control.o(.data)
    yaw_PWM_OUT                              0x20000cf0   Data           2  pid_control.o(.data)
    yaw_PWM                                  0x20000cf4   Data           4  pid_control.o(.data)
    clean_value                              0x20000cf8   Data           1  pid_control.o(.data)
    START_YAW                                0x20000cfc   Data           4  pid_control.o(.data)
    cheshi                                   0x20000d00   Data           4  pid_control.o(.data)
    cheshi4                                  0x20000d04   Data           4  pid_control.o(.data)
    cheshi1                                  0x20000d08   Data           4  pid_control.o(.data)
    cheshi2                                  0x20000d0c   Data           4  pid_control.o(.data)
    cheshi3                                  0x20000d10   Data           4  pid_control.o(.data)
    cheshi5                                  0x20000d14   Data           4  pid_control.o(.data)
    numG                                     0x20000d18   Data           1  pid_control.o(.data)
    numOUTG                                  0x20000d19   Data           1  pid_control.o(.data)
    numG_roll                                0x20000d1a   Data           1  pid_control.o(.data)
    numOUTG_roll                             0x20000d1b   Data           1  pid_control.o(.data)
    numG_YAW                                 0x20000d1c   Data           1  pid_control.o(.data)
    numYAWOUTG                               0x20000d1d   Data           1  pid_control.o(.data)
    __stdout                                 0x20000d74   Data           4  stdout.o(.data)
    SendBuff                                 0x20000d7c   Data        5000  gpio_config.o(.bss)
    radian_gyro                              0x20002104   Data          12  data_exchang.o(.bss)
    averag_gyro                              0x20002110   Data          12  data_exchang.o(.bss)
    origin_Acel                              0x2000211c   Data          12  data_exchang.o(.bss)
    averag_Acel                              0x20002128   Data          12  data_exchang.o(.bss)
    value_gyro                               0x20002134   Data          12  data_exchang.o(.bss)
    angle                                    0x20002140   Data          12  data_exchang.o(.bss)
    Mag_corr                                 0x2000214c   Data          12  data_exchang.o(.bss)
    flash_data                               0x20002158   Data          84  flash_rw.o(.bss)
    last_value_Y                             0x200021f4   Data          32  pid_control.o(.bss)
    last_value_OUTY                          0x20002214   Data          36  pid_control.o(.bss)
    last_value_X                             0x20002238   Data          32  pid_control.o(.bss)
    last_value_OUTX                          0x20002258   Data          36  pid_control.o(.bss)
    last_value_Z                             0x2000227c   Data          32  pid_control.o(.bss)
    last_value_OUTZ                          0x2000229c   Data          36  pid_control.o(.bss)
    __initial_sp                             0x200026c0   Data           0  startup_stm32f10x_hd.o(STACK)



==============================================================================

Memory Map of the image

  Image Entry point : 0x08000131

  Load Region LR_IROM1 (Base: 0x08000000, Size: 0x0000c314, Max: 0x00080000, ABSOLUTE, COMPRESSED[0x0000ba7c])

    Execution Region ER_IROM1 (Base: 0x08000000, Size: 0x0000b598, Max: 0x00080000, ABSOLUTE)

    Base Addr    Size         Type   Attr      Idx    E Section Name        Object

    0x08000000   0x00000130   Data   RO            3    RESET               startup_stm32f10x_hd.o
    0x08000130   0x00000000   Code   RO         4652  * .ARM.Collect$$$$00000000  mc_w.l(entry.o)
    0x08000130   0x00000004   Code   RO         4989    .ARM.Collect$$$$00000001  mc_w.l(entry2.o)
    0x08000134   0x00000004   Code   RO         4992    .ARM.Collect$$$$00000004  mc_w.l(entry5.o)
    0x08000138   0x00000000   Code   RO         4994    .ARM.Collect$$$$00000008  mc_w.l(entry7b.o)
    0x08000138   0x00000000   Code   RO         4996    .ARM.Collect$$$$0000000A  mc_w.l(entry8b.o)
    0x08000138   0x00000008   Code   RO         4997    .ARM.Collect$$$$0000000B  mc_w.l(entry9a.o)
    0x08000140   0x00000000   Code   RO         4999    .ARM.Collect$$$$0000000D  mc_w.l(entry10a.o)
    0x08000140   0x00000000   Code   RO         5001    .ARM.Collect$$$$0000000F  mc_w.l(entry11a.o)
    0x08000140   0x00000004   Code   RO         4990    .ARM.Collect$$$$00002712  mc_w.l(entry2.o)
    0x08000144   0x00000024   Code   RO            4    .text               startup_stm32f10x_hd.o
    0x08000168   0x000000b0   Code   RO         4916    .text               mf_w.l(fadd.o)
    0x08000218   0x00000064   Code   RO         4918    .text               mf_w.l(fmul.o)
    0x0800027c   0x0000007c   Code   RO         4920    .text               mf_w.l(fdiv.o)
    0x080002f8   0x0000014e   Code   RO         4922    .text               mf_w.l(dadd.o)
    0x08000446   0x000000e4   Code   RO         4924    .text               mf_w.l(dmul.o)
    0x0800052a   0x000000de   Code   RO         4926    .text               mf_w.l(ddiv.o)
    0x08000608   0x00000012   Code   RO         4928    .text               mf_w.l(fflti.o)
    0x0800061a   0x0000000a   Code   RO         4930    .text               mf_w.l(ffltui.o)
    0x08000624   0x00000022   Code   RO         4932    .text               mf_w.l(dflti.o)
    0x08000646   0x0000001a   Code   RO         4934    .text               mf_w.l(dfltui.o)
    0x08000660   0x00000032   Code   RO         4936    .text               mf_w.l(ffixi.o)
    0x08000692   0x0000003e   Code   RO         4940    .text               mf_w.l(dfixi.o)
    0x080006d0   0x00000032   Code   RO         4942    .text               mf_w.l(dfixui.o)
    0x08000702   0x00000026   Code   RO         4944    .text               mf_w.l(f2d.o)
    0x08000728   0x00000030   Code   RO         4946    .text               mf_w.l(cdcmple.o)
    0x08000758   0x00000030   Code   RO         4948    .text               mf_w.l(cdrcmple.o)
    0x08000788   0x00000038   Code   RO         4950    .text               mf_w.l(d2f.o)
    0x080007c0   0x00000014   Code   RO         4952    .text               mf_w.l(cfcmple.o)
    0x080007d4   0x00000014   Code   RO         4954    .text               mf_w.l(cfrcmple.o)
    0x080007e8   0x0000002c   Code   RO         5004    .text               mc_w.l(uidiv.o)
    0x08000814   0x00000062   Code   RO         5006    .text               mc_w.l(uldiv.o)
    0x08000876   0x0000001e   Code   RO         5008    .text               mc_w.l(llshl.o)
    0x08000894   0x00000020   Code   RO         5010    .text               mc_w.l(llushr.o)
    0x080008b4   0x00000024   Code   RO         5012    .text               mc_w.l(llsshr.o)
    0x080008d8   0x00000000   Code   RO         5021    .text               mc_w.l(iusefp.o)
    0x080008d8   0x0000006e   Code   RO         5022    .text               mf_w.l(fepilogue.o)
    0x08000946   0x0000005e   Code   RO         5024    .text               mf_w.l(fsqrt.o)
    0x080009a4   0x000000ba   Code   RO         5026    .text               mf_w.l(depilogue.o)
    0x08000a5e   0x0000002e   Code   RO         5028    .text               mf_w.l(dscalb.o)
    0x08000a8c   0x000000a2   Code   RO         5030    .text               mf_w.l(dsqrt.o)
    0x08000b2e   0x00000030   Code   RO         5032    .text               mf_w.l(dfixul.o)
    0x08000b5e   0x00000002   PAD
    0x08000b60   0x00000024   Code   RO         5034    .text               mc_w.l(init.o)
    0x08000b84   0x00000056   Code   RO         5044    .text               mc_w.l(__dczerorl2.o)
    0x08000bda   0x00000002   PAD
    0x08000bdc   0x00000030   Code   RO         3978    i.ADC1_GPIO_Config  adc_dma.o
    0x08000c0c   0x0000000c   Code   RO         3979    i.ADC1_Init         adc_dma.o
    0x08000c18   0x000000e0   Code   RO         3980    i.ADC1_Mode_Config  adc_dma.o
    0x08000cf8   0x00000016   Code   RO          147    i.ADC_Cmd           stm32f10x_adc.o
    0x08000d0e   0x00000016   Code   RO          148    i.ADC_DMACmd        stm32f10x_adc.o
    0x08000d24   0x00000014   Code   RO          155    i.ADC_GetCalibrationStatus  stm32f10x_adc.o
    0x08000d38   0x00000014   Code   RO          161    i.ADC_GetResetCalibrationStatus  stm32f10x_adc.o
    0x08000d4c   0x00000050   Code   RO          165    i.ADC_Init          stm32f10x_adc.o
    0x08000d9c   0x000000b8   Code   RO          169    i.ADC_RegularChannelConfig  stm32f10x_adc.o
    0x08000e54   0x0000000a   Code   RO          170    i.ADC_ResetCalibration  stm32f10x_adc.o
    0x08000e5e   0x00000016   Code   RO          172    i.ADC_SoftwareStartConvCmd  stm32f10x_adc.o
    0x08000e74   0x0000000a   Code   RO          174    i.ADC_StartCalibration  stm32f10x_adc.o
    0x08000e7e   0x00000002   PAD
    0x08000e80   0x00000b30   Code   RO         4356    i.AHRSupdate        ahrs.o
    0x080019b0   0x00000428   Code   RO         3853    i.BMP280_GetPressure  bmp_280.o
    0x08001dd8   0x000001bc   Code   RO         3854    i.BMP280_GetTemperature  bmp_280.o
    0x08001f94   0x0000000e   Code   RO         3857    i.BMP280_Init       bmp_280.o
    0x08001fa2   0x00000004   Code   RO         3197    i.BusFault_Handler  stm32f10x_it.o
    0x08001fa6   0x00000002   PAD
    0x08001fa8   0x0000009c   Code   RO         4465    i.DATA_Kalman_Filter  kalman_filter.o
    0x08002044   0x00000018   Code   RO          850    i.DMA_Cmd           stm32f10x_dma.o
    0x0800205c   0x0000014c   Code   RO          851    i.DMA_DeInit        stm32f10x_dma.o
    0x080021a8   0x0000003c   Code   RO          856    i.DMA_Init          stm32f10x_dma.o
    0x080021e4   0x00000002   Code   RO         3198    i.DebugMon_Handler  stm32f10x_it.o
    0x080021e6   0x00000016   Code   RO         4003    i.DelayTime_us      ultrasonicwave.o
    0x080021fc   0x00000012   Code   RO         3754    i.Delay_600ns       i2c.o
    0x0800220e   0x00000018   Code   RO         3457    i.Delay_ms          bsp_systick.o
    0x08002226   0x00000002   PAD
    0x08002228   0x00000028   Code   RO         3458    i.Delay_us          bsp_systick.o
    0x08002250   0x000000bc   Code   RO         3199    i.EXTI15_10_IRQHandler  stm32f10x_it.o
    0x0800230c   0x00000048   Code   RO         3200    i.EXTI1_IRQHandler  stm32f10x_it.o
    0x08002354   0x0000000c   Code   RO          921    i.EXTI_ClearITPendingBit  stm32f10x_exti.o
    0x08002360   0x00000028   Code   RO          925    i.EXTI_GetITStatus  stm32f10x_exti.o
    0x08002388   0x00000094   Code   RO          926    i.EXTI_Init         stm32f10x_exti.o
    0x0800241c   0x00000050   Code   RO         4042    i.EXTI_PB15_Config  irda.o
    0x0800246c   0x0000004c   Code   RO         3552    i.EXTI_PB1_Config   bsp_exti.o
    0x080024b8   0x0000000c   Code   RO          974    i.FLASH_ClearFlag   stm32f10x_flash.o
    0x080024c4   0x0000004c   Code   RO          979    i.FLASH_ErasePage   stm32f10x_flash.o
    0x08002510   0x00000034   Code   RO          980    i.FLASH_GetBank1Status  stm32f10x_flash.o
    0x08002544   0x00000014   Code   RO          990    i.FLASH_LockBank1   stm32f10x_flash.o
    0x08002558   0x0000006c   Code   RO          994    i.FLASH_ProgramWord  stm32f10x_flash.o
    0x080025c4   0x00000018   Code   RO          998    i.FLASH_UnlockBank1  stm32f10x_flash.o
    0x080025dc   0x00000026   Code   RO         1001    i.FLASH_WaitForLastOperation  stm32f10x_flash.o
    0x08002602   0x00000002   PAD
    0x08002604   0x00000340   Code   RO         4418    i.Flash_data_init   flash_rw.o
    0x08002944   0x00000040   Code   RO         1274    i.GPIO_EXTILineConfig  stm32f10x_gpio.o
    0x08002984   0x00000116   Code   RO         1277    i.GPIO_Init         stm32f10x_gpio.o
    0x08002a9a   0x00000002   PAD
    0x08002a9c   0x00000090   Code   RO         1279    i.GPIO_PinRemapConfig  stm32f10x_gpio.o
    0x08002b2c   0x00000012   Code   RO         1281    i.GPIO_ReadInputDataBit  stm32f10x_gpio.o
    0x08002b3e   0x00000004   Code   RO         1284    i.GPIO_ResetBits    stm32f10x_gpio.o
    0x08002b42   0x00000004   Code   RO         1285    i.GPIO_SetBits      stm32f10x_gpio.o
    0x08002b46   0x00000002   PAD
    0x08002b48   0x00000030   Code   RO         4043    i.Get_Pulse_Time    irda.o
    0x08002b78   0x00000004   Code   RO         3201    i.HardFault_Handler  stm32f10x_it.o
    0x08002b7c   0x0000004c   Code   RO         3756    i.I2C_RecvByte      i2c.o
    0x08002bc8   0x0000002c   Code   RO         3759    i.I2C_SendACK       i2c.o
    0x08002bf4   0x0000005c   Code   RO         3760    i.I2C_SendByte      i2c.o
    0x08002c50   0x0000003c   Code   RO         3761    i.I2C_Start         i2c.o
    0x08002c8c   0x00000028   Code   RO         3762    i.I2C_Stop          i2c.o
    0x08002cb4   0x00000054   Code   RO         3763    i.IIC_ReadData      i2c.o
    0x08002d08   0x00000024   Code   RO         3764    i.IIC_add_WriteI2C  i2c.o
    0x08002d2c   0x00000008   Code   RO         4044    i.IrDa_Init         irda.o
    0x08002d34   0x00000044   Code   RO         4045    i.IrDa_Process      irda.o
    0x08002d78   0x000000b8   Code   RO         4469    i.KalmanFilter_x    kalman_filter.o
    0x08002e30   0x000000b8   Code   RO         4470    i.KalmanFilter_y    kalman_filter.o
    0x08002ee8   0x000000b8   Code   RO         4471    i.KalmanFilter_z    kalman_filter.o
    0x08002fa0   0x00000034   Code   RO         4344    i.LED_GPIO_Config   led_config.o
    0x08002fd4   0x00000070   Code   RO         4244    i.MAG_data          data_exchang.o
    0x08003044   0x000001f4   Code   RO         4139    i.MENU_1            init_set.o
    0x08003238   0x000003d8   Code   RO         4140    i.MENU_1_1          init_set.o
    0x08003610   0x000005a4   Code   RO         4141    i.MENU_1_2          init_set.o
    0x08003bb4   0x00000190   Code   RO         4142    i.MENU_1_3          init_set.o
    0x08003d44   0x000003d8   Code   RO         4143    i.MENU_1_3_1        init_set.o
    0x0800411c   0x000005a4   Code   RO         4144    i.MENU_1_3_2        init_set.o
    0x080046c0   0x000000a0   Code   RO         4145    i.MENU_2            init_set.o
    0x08004760   0x0000019c   Code   RO         4146    i.MENU_3            init_set.o
    0x080048fc   0x00000258   Code   RO         4147    i.MENU_3_1          init_set.o
    0x08004b54   0x0000020c   Code   RO         4148    i.MENU_3_2          init_set.o
    0x08004d60   0x00000042   Code   RO         3896    i.MPU6050ReadAcc    mpu6050.o
    0x08004da2   0x00000042   Code   RO         3897    i.MPU6050ReadGyro   mpu6050.o
    0x08004de4   0x00000086   Code   RO         3900    i.MPU6050Read_all   mpu6050.o
    0x08004e6a   0x0000009c   Code   RO         3901    i.MPU6050_Init      mpu6050.o
    0x08004f06   0x0000004c   Code   RO         3903    i.MPU9250ReadMag    mpu6050.o
    0x08004f52   0x00000004   Code   RO         3202    i.MemManage_Handler  stm32f10x_it.o
    0x08004f56   0x00000002   Code   RO         3203    i.NMI_Handler       stm32f10x_it.o
    0x08004f58   0x0000002a   Code   RO         4046    i.NVIC_Configuration  irda.o
    0x08004f82   0x00000002   PAD
    0x08004f84   0x00000070   Code   RO          101    i.NVIC_Init         misc.o
    0x08004ff4   0x00000014   Code   RO          102    i.NVIC_PriorityGroupConfig  misc.o
    0x08005008   0x00000040   Code   RO         3569    i.OLED_Clear        oled.o
    0x08005048   0x00000164   Code   RO         3573    i.OLED_Init         oled.o
    0x080051ac   0x0000002e   Code   RO         3574    i.OLED_Set_Pos      oled.o
    0x080051da   0x00000002   PAD
    0x080051dc   0x00000068   Code   RO         3575    i.OLED_ShowCHinese  oled.o
    0x08005244   0x00000070   Code   RO         3576    i.OLED_ShowCHinese_inverse  oled.o
    0x080052b4   0x00000070   Code   RO         3577    i.OLED_ShowChar     oled.o
    0x08005324   0x00000084   Code   RO         3578    i.OLED_ShowNum      oled.o
    0x080053a8   0x00000036   Code   RO         3579    i.OLED_ShowString   oled.o
    0x080053de   0x00000002   PAD
    0x080053e0   0x00000084   Code   RO         3580    i.OLED_WR_Byte      oled.o
    0x08005464   0x0000002a   Code   RO         3553    i.PB1_NVIC_Configuration  bsp_exti.o
    0x0800548e   0x00000002   PAD
    0x08005490   0x000000a4   Code   RO         4512    i.PID_control       pid_control.o
    0x08005534   0x000002e0   Code   RO         4513    i.PID_pitch_Control  pid_control.o
    0x08005814   0x000002dc   Code   RO         4514    i.PID_roll_Control  pid_control.o
    0x08005af0   0x00000318   Code   RO         4515    i.PID_yaw_Control   pid_control.o
    0x08005e08   0x00000178   Code   RO         4516    i.PWM_control       pid_control.o
    0x08005f80   0x00000002   Code   RO         3204    i.PendSV_Handler    stm32f10x_it.o
    0x08005f82   0x00000002   PAD
    0x08005f84   0x00000018   Code   RO         1697    i.RCC_ADCCLKConfig  stm32f10x_rcc.o
    0x08005f9c   0x00000020   Code   RO         1698    i.RCC_AHBPeriphClockCmd  stm32f10x_rcc.o
    0x08005fbc   0x00000020   Code   RO         1699    i.RCC_APB1PeriphClockCmd  stm32f10x_rcc.o
    0x08005fdc   0x00000020   Code   RO         1700    i.RCC_APB1PeriphResetCmd  stm32f10x_rcc.o
    0x08005ffc   0x00000020   Code   RO         1701    i.RCC_APB2PeriphClockCmd  stm32f10x_rcc.o
    0x0800601c   0x00000020   Code   RO         1702    i.RCC_APB2PeriphResetCmd  stm32f10x_rcc.o
    0x0800603c   0x000000d4   Code   RO         1709    i.RCC_GetClocksFreq  stm32f10x_rcc.o
    0x08006110   0x00000020   Code   RO         4419    i.ReadFlashNBtye    flash_rw.o
    0x08006130   0x00000018   Code   RO         2184    i.SPI_Cmd           stm32f10x_spi.o
    0x08006148   0x000000cc   Code   RO         3292    i.SPI_DATA_Init     gpio_config.o
    0x08006214   0x00000038   Code   RO         3294    i.SPI_FLASH_SendByte  gpio_config.o
    0x0800624c   0x00000012   Code   RO         2192    i.SPI_I2S_GetFlagStatus  stm32f10x_spi.o
    0x0800625e   0x00000006   Code   RO         2195    i.SPI_I2S_ReceiveData  stm32f10x_spi.o
    0x08006264   0x00000004   Code   RO         2196    i.SPI_I2S_SendData  stm32f10x_spi.o
    0x08006268   0x0000003c   Code   RO         2197    i.SPI_Init          stm32f10x_spi.o
    0x080062a4   0x00000040   Code   RO         3361    i.SPI_Read_Buf      nr24l01_reg.o
    0x080062e4   0x00000028   Code   RO         3362    i.SPI_Read_Reg      nr24l01_reg.o
    0x0800630c   0x0000003c   Code   RO         3363    i.SPI_Write_Buf     nr24l01_reg.o
    0x08006348   0x0000002c   Code   RO         3364    i.SPI_Write_Reg     nr24l01_reg.o
    0x08006374   0x00000002   Code   RO         3205    i.SVC_Handler       stm32f10x_it.o
    0x08006376   0x00000008   Code   RO           24    i.SetSysClock       system_stm32f10x.o
    0x0800637e   0x00000002   PAD
    0x08006380   0x000000e0   Code   RO           25    i.SetSysClockTo72   system_stm32f10x.o
    0x08006460   0x00000008   Code   RO         3206    i.SysTick_Handler   stm32f10x_it.o
    0x08006468   0x0000007c   Code   RO         3459    i.SysTick_Init      bsp_systick.o
    0x080064e4   0x00000060   Code   RO           27    i.SystemInit        system_stm32f10x.o
    0x08006544   0x00000048   Code   RO         3493    i.TIM3_GPIO_Config  pwm_config.o
    0x0800658c   0x00000068   Code   RO         3494    i.TIM3_Mode_PWM1_Config  pwm_config.o
    0x080065f4   0x00000068   Code   RO         3495    i.TIM3_Mode_PWM2_Config  pwm_config.o
    0x0800665c   0x00000068   Code   RO         3496    i.TIM3_Mode_PWM3_Config  pwm_config.o
    0x080066c4   0x00000068   Code   RO         3497    i.TIM3_Mode_PWM4_Config  pwm_config.o
    0x0800672c   0x00000028   Code   RO         3498    i.TIM3_init         pwm_config.o
    0x08006754   0x00000054   Code   RO         3534    i.TIM6_Configuration  bsp_timbase.o
    0x080067a8   0x00000118   Code   RO         3207    i.TIM6_IRQHandler   stm32f10x_it.o
    0x080068c0   0x0000002a   Code   RO         3535    i.TIM6_NVIC_Configuration  bsp_timbase.o
    0x080068ea   0x00000002   PAD
    0x080068ec   0x00000040   Code   RO         4121    i.TIM7_Configuration  tim_time.o
    0x0800692c   0x00000018   Code   RO         2327    i.TIM_ARRPreloadConfig  stm32f10x_tim.o
    0x08006944   0x00000006   Code   RO         2333    i.TIM_ClearFlag     stm32f10x_tim.o
    0x0800694a   0x00000006   Code   RO         2334    i.TIM_ClearITPendingBit  stm32f10x_tim.o
    0x08006950   0x00000018   Code   RO         2339    i.TIM_Cmd           stm32f10x_tim.o
    0x08006968   0x000001e8   Code   RO         2344    i.TIM_DeInit        stm32f10x_tim.o
    0x08006b50   0x00000006   Code   RO         2358    i.TIM_GetCounter    stm32f10x_tim.o
    0x08006b56   0x00000022   Code   RO         2360    i.TIM_GetITStatus   stm32f10x_tim.o
    0x08006b78   0x00000012   Code   RO         2364    i.TIM_ITConfig      stm32f10x_tim.o
    0x08006b8a   0x00000002   PAD
    0x08006b8c   0x00000098   Code   RO         2368    i.TIM_OC1Init       stm32f10x_tim.o
    0x08006c24   0x00000012   Code   RO         2371    i.TIM_OC1PreloadConfig  stm32f10x_tim.o
    0x08006c36   0x00000002   PAD
    0x08006c38   0x000000a4   Code   RO         2373    i.TIM_OC2Init       stm32f10x_tim.o
    0x08006cdc   0x0000001a   Code   RO         2376    i.TIM_OC2PreloadConfig  stm32f10x_tim.o
    0x08006cf6   0x00000002   PAD
    0x08006cf8   0x000000a0   Code   RO         2378    i.TIM_OC3Init       stm32f10x_tim.o
    0x08006d98   0x00000012   Code   RO         2381    i.TIM_OC3PreloadConfig  stm32f10x_tim.o
    0x08006daa   0x00000002   PAD
    0x08006dac   0x0000007c   Code   RO         2383    i.TIM_OC4Init       stm32f10x_tim.o
    0x08006e28   0x0000001a   Code   RO         2385    i.TIM_OC4PreloadConfig  stm32f10x_tim.o
    0x08006e42   0x00000004   Code   RO         2404    i.TIM_SetCounter    stm32f10x_tim.o
    0x08006e46   0x00000002   PAD
    0x08006e48   0x000000a4   Code   RO         2410    i.TIM_TimeBaseInit  stm32f10x_tim.o
    0x08006eec   0x00000018   Code   RO         3460    i.TimingDelay_Decrement  bsp_systick.o
    0x08006f04   0x0000007c   Code   RO         3295    i.USART1_Config     gpio_config.o
    0x08006f80   0x00000058   Code   RO         3296    i.USART1_DMA_Config  gpio_config.o
    0x08006fd8   0x00000018   Code   RO         2875    i.USART_Cmd         stm32f10x_usart.o
    0x08006ff0   0x0000001a   Code   RO         2878    i.USART_GetFlagStatus  stm32f10x_usart.o
    0x0800700a   0x00000002   PAD
    0x0800700c   0x000000d8   Code   RO         2882    i.USART_Init        stm32f10x_usart.o
    0x080070e4   0x00000008   Code   RO         2892    i.USART_SendData    stm32f10x_usart.o
    0x080070ec   0x00000028   Code   RO         4004    i.UltrasonicWave_CalculateTime  ultrasonicwave.o
    0x08007114   0x0000002c   Code   RO         4005    i.UltrasonicWave_Configuration  ultrasonicwave.o
    0x08007140   0x00000054   Code   RO         4006    i.UltrasonicWave_OK  ultrasonicwave.o
    0x08007194   0x00000028   Code   RO         4007    i.UltrasonicWave_StartMeasure  ultrasonicwave.o
    0x080071bc   0x00000004   Code   RO         3208    i.UsageFault_Handler  stm32f10x_it.o
    0x080071c0   0x000001d8   Code   RO         4420    i.WriteFlashOneWord  flash_rw.o
    0x08007398   0x00000050   Code   RO         4245    i.YAW_data_init     data_exchang.o
    0x080073e8   0x00000020   Code   RO         4888    i.__0printf         mc_w.l(printfa.o)
    0x08007408   0x00000028   Code   RO         4973    i.__ARM_fpclassify  m_ws.l(fpclassify.o)
    0x08007430   0x00000388   Code   RO         4978    i.__ieee754_rem_pio2  m_ws.l(rred.o)
    0x080077b8   0x000000fc   Code   RO         4956    i.__kernel_cos      m_ws.l(cos_i.o)
    0x080078b4   0x000000aa   Code   RO         4975    i.__kernel_poly     m_ws.l(poly.o)
    0x0800795e   0x00000002   PAD
    0x08007960   0x000000ec   Code   RO         4983    i.__kernel_sin      m_ws.l(sin_i.o)
    0x08007a4c   0x00000006   Code   RO         4960    i.__mathlib_dbl_infnan  m_ws.l(dunder.o)
    0x08007a52   0x00000004   Code   RO         4961    i.__mathlib_dbl_infnan2  m_ws.l(dunder.o)
    0x08007a56   0x0000000c   Code   RO         4962    i.__mathlib_dbl_invalid  m_ws.l(dunder.o)
    0x08007a62   0x00000002   PAD
    0x08007a64   0x00000010   Code   RO         4965    i.__mathlib_dbl_underflow  m_ws.l(dunder.o)
    0x08007a74   0x0000000e   Code   RO         5038    i.__scatterload_copy  mc_w.l(handlers.o)
    0x08007a82   0x00000002   Code   RO         5039    i.__scatterload_null  mc_w.l(handlers.o)
    0x08007a84   0x0000000e   Code   RO         5040    i.__scatterload_zeroinit  mc_w.l(handlers.o)
    0x08007a92   0x00000002   PAD
    0x08007a94   0x0000000c   Code   RO         5016    i.__set_errno       mc_w.l(errno.o)
    0x08007aa0   0x00000184   Code   RO         4895    i._fp_digits        mc_w.l(printfa.o)
    0x08007c24   0x000006dc   Code   RO         4896    i._printf_core      mc_w.l(printfa.o)
    0x08008300   0x00000024   Code   RO         4897    i._printf_post_padding  mc_w.l(printfa.o)
    0x08008324   0x0000002e   Code   RO         4898    i._printf_pre_padding  mc_w.l(printfa.o)
    0x08008352   0x00000002   PAD
    0x08008354   0x00000270   Code   RO         4593    i.asin              m_ws.l(asin.o)
    0x080085c4   0x00000220   Code   RO         4603    i.atan              m_ws.l(atan.o)
    0x080087e4   0x00000180   Code   RO         4613    i.atan2             m_ws.l(atan2.o)
    0x08008964   0x000000a8   Code   RO         4520    i.averag_gyro_X     pid_control.o
    0x08008a0c   0x000000a8   Code   RO         4521    i.averag_gyro_Y     pid_control.o
    0x08008ab4   0x000000a8   Code   RO         4522    i.averag_gyro_Z     pid_control.o
    0x08008b5c   0x000001f0   Code   RO         4246    i.calibration_GA    data_exchang.o
    0x08008d4c   0x00000330   Code   RO         4247    i.calibration_Mag   data_exchang.o
    0x0800907c   0x00000214   Code   RO         4149    i.complete_GA_data  init_set.o
    0x08009290   0x0000020c   Code   RO         4150    i.complete_data     init_set.o
    0x0800949c   0x0000009c   Code   RO         4621    i.cos               m_ws.l(cos.o)
    0x08009538   0x00000268   Code   RO         4304    i.data_chang        swap_data.o
    0x080097a0   0x000001b0   Code   RO         4249    i.data_handling     data_exchang.o
    0x08009950   0x000000b8   Code   RO         4250    i.data_init         data_exchang.o
    0x08009a08   0x00000034   Code   RO         4421    i.data_turn         flash_rw.o
    0x08009a3c   0x00000024   Code   RO         3299    i.fputc             gpio_config.o
    0x08009a60   0x0000001c   Code   RO         3365    i.get_nrf_sta       nr24l01_reg.o
    0x08009a7c   0x0000002c   Code   RO         3768    i.gpio_i2c          i2c.o
    0x08009aa8   0x00000070   Code   RO         3366    i.init_NRF24L01     nr24l01_reg.o
    0x08009b18   0x0000084c   Code   RO         4362    i.init_quaternion   ahrs.o
    0x0800a364   0x0000004c   Code   RO         4363    i.invSqrt           ahrs.o
    0x0800a3b0   0x00000104   Code   RO         3108    i.main              main.o
    0x0800a4b4   0x0000002c   Code   RO         3367    i.nrf_RxMod         nr24l01_reg.o
    0x0800a4e0   0x0000002c   Code   RO         3368    i.nrf_TxMod         nr24l01_reg.o
    0x0800a50c   0x00000038   Code   RO         3371    i.nrf_read          nr24l01_reg.o
    0x0800a544   0x00000040   Code   RO         3372    i.nrf_trans         nr24l01_reg.o
    0x0800a584   0x00000016   Code   RO         3581    i.oled_pow          oled.o
    0x0800a59a   0x00000002   PAD
    0x0800a59c   0x00000138   Code   RO         4422    i.read_flash_data   flash_rw.o
    0x0800a6d4   0x00000020   Code   RO         3301    i.send_byte_USART1  gpio_config.o
    0x0800a6f4   0x00000084   Code   RO         4305    i.send_line         swap_data.o
    0x0800a778   0x000002b0   Code   RO         4151    i.set_data          init_set.o
    0x0800aa28   0x000000a0   Code   RO         4629    i.sin               m_ws.l(sin.o)
    0x0800aac8   0x0000004c   Code   RO         4637    i.sqrt              m_ws.l(sqrt.o)
    0x0800ab14   0x0000002c   Code   RO         4645    i.sqrtf             m_ws.l(sqrtf.o)
    0x0800ab40   0x0000000c   Code   RO         4423    i.write_flash_data  flash_rw.o
    0x0800ab4c   0x00000818   Data   RO         3582    .constdata          oled.o
    0x0800b364   0x00000004   PAD
    0x0800b368   0x00000050   Data   RO         4594    .constdata          m_ws.l(asin.o)
    0x0800b3b8   0x00000098   Data   RO         4604    .constdata          m_ws.l(atan.o)
    0x0800b450   0x00000030   Data   RO         4957    .constdata          m_ws.l(cos_i.o)
    0x0800b480   0x00000008   Data   RO         4977    .constdata          m_ws.l(qnan.o)
    0x0800b488   0x000000c8   Data   RO         4980    .constdata          m_ws.l(rred.o)
    0x0800b550   0x00000028   Data   RO         4984    .constdata          m_ws.l(sin_i.o)
    0x0800b578   0x00000020   Data   RO         5036    Region$$Table       anon$$obj.o


    Execution Region RW_IRAM1 (Base: 0x20000000, Size: 0x000026c0, Max: 0x00010000, ABSOLUTE, COMPRESSED[0x000004e4])

    Base Addr    Size         Type   Attr      Idx    E Section Name        Object

    0x20000000   0x00000014   Data   RW           28    .data               system_stm32f10x.o
    0x20000014   0x00000014   Data   RW         1729    .data               stm32f10x_rcc.o
    0x20000028   0x00000018   Data   RW         3109    .data               main.o
    0x20000040   0x0000000b   Data   RW         3209    .data               stm32f10x_it.o
    0x2000004b   0x0000004b   Data   RW         3375    .data               nr24l01_reg.o
    0x20000096   0x00000002   PAD
    0x20000098   0x00000004   Data   RW         3461    .data               bsp_systick.o
    0x2000009c   0x000009c0   Data   RW         3583    .data               oled.o
    0x20000a5c   0x00000028   Data   RW         3858    .data               bmp_280.o
    0x20000a84   0x00000002   Data   RW         3981    .data               adc_dma.o
    0x20000a86   0x00000002   PAD
    0x20000a88   0x0000000c   Data   RW         4008    .data               ultrasonicwave.o
    0x20000a94   0x00000006   Data   RW         4047    .data               irda.o
    0x20000a9a   0x00000003   Data   RW         4152    .data               init_set.o
    0x20000a9d   0x00000003   PAD
    0x20000aa0   0x00000080   Data   RW         4252    .data               data_exchang.o
    0x20000b20   0x00000062   Data   RW         4308    .data               swap_data.o
    0x20000b82   0x00000002   PAD
    0x20000b84   0x00000040   Data   RW         4364    .data               ahrs.o
    0x20000bc4   0x00000058   Data   RW         4425    .data               flash_rw.o
    0x20000c1c   0x00000004   PAD
    0x20000c20   0x00000060   Data   RW         4472    .data               kalman_filter.o
    0x20000c80   0x000000f4   Data   RW         4524    .data               pid_control.o
    0x20000d74   0x00000004   Data   RW         5003    .data               mc_w.l(stdout.o)
    0x20000d78   0x00000004   Data   RW         5017    .data               mc_w.l(errno.o)
    0x20000d7c   0x00001388   Zero   RW         3302    .bss                gpio_config.o
    0x20002104   0x00000054   Zero   RW         4251    .bss                data_exchang.o
    0x20002158   0x00000054   Zero   RW         4424    .bss                flash_rw.o
    0x200021ac   0x00000114   Zero   RW         4523    .bss                pid_control.o
    0x200022c0   0x00000400   Zero   RW            1    STACK               startup_stm32f10x_hd.o


==============================================================================

Image component sizes


      Code (inc. data)   RO Data    RW Data    ZI Data      Debug   Object Name

       284         20          0          2          0       2257   adc_dma.o
      5064        298          0         64          0       3681   ahrs.o
      1522        134          0         40          0       3120   bmp_280.o
       118          4          0          0          0       1082   bsp_exti.o
       212         28          0          4          0      17908   bsp_systick.o
       126          6          0          0          0       1119   bsp_timbase.o
         0          0          0          0          0       4564   core_cm3.o
      2120        406          0        128         84       6883   data_exchang.o
      1712        416          0         88         84       6646   flash_rw.o
       540         48          0          0       5000       4291   gpio_config.o
       494         32          0          0          0       5510   i2c.o
      9196        736          0          3          0      13319   init_set.o
       246         18          0          6          0       3221   irda.o
       708         58          0         96          0       5373   kalman_filter.o
        52          6          0          0          0        534   led_config.o
       260         18          0         24          0      18841   main.o
       132         22          0          0          0       1647   misc.o
       498          0          0          0          0       3065   mpu6050.o
       556         72          0         75          0       6719   nr24l01_reg.o
      1134         42       2072       2496          0       7950   oled.o
      3304        526          0        244        276       9389   pid_control.o
       528         32          0          0          0       3804   pwm_config.o
        36          8        304          0       1024        880   startup_stm32f10x_hd.o
       390         10          0          0          0       7765   stm32f10x_adc.o
       416          8          0          0          0       3570   stm32f10x_dma.o
       200         18          0          0          0       2256   stm32f10x_exti.o
       330         38          0          0          0       5694   stm32f10x_flash.o
       512         10          0          0          0       5368   stm32f10x_gpio.o
       572         92          0         11          0       6769   stm32f10x_it.o
       396         56          0         20          0       7027   stm32f10x_rcc.o
       112          0          0          0          0       4054   stm32f10x_spi.o
      1462        156          0          0          0      12404   stm32f10x_tim.o
       274          6          0          0          0       4204   stm32f10x_usart.o
       748         98          0         98          0       3881   swap_data.o
       328         28          0         20          0     285653   system_stm32f10x.o
        64          4          0          0          0        573   tim_time.o
       230         40          0         12          0       3312   ultrasonicwave.o

    ----------------------------------------------------------------------
     34916       3494       2412       3444       6468     484333   Object Totals
         0          0         32          0          0          0   (incl. Generated)
        40          0          4         13          0          0   (incl. Padding)

    ----------------------------------------------------------------------

      Code (inc. data)   RO Data    RW Data    ZI Data      Debug   Library Member Name

       624         52         80          0          0        168   asin.o
       544         70        152          0          0        124   atan.o
       384         38          0          0          0        144   atan2.o
       156          8          0          0          0        104   cos.o
       252         22         48          0          0        124   cos_i.o
        38          6          0          0          0        272   dunder.o
        40          0          0          0          0         68   fpclassify.o
       170          0          0          0          0         96   poly.o
         0          0          8          0          0          0   qnan.o
       904         76        200          0          0        140   rred.o
       160         10          0          0          0        108   sin.o
       236         12         40          0          0        128   sin_i.o
        76          0          0          0          0         84   sqrt.o
        44          0          0          0          0         80   sqrtf.o
        86          0          0          0          0          0   __dczerorl2.o
         0          0          0          0          0          0   entry.o
         0          0          0          0          0          0   entry10a.o
         0          0          0          0          0          0   entry11a.o
         8          4          0          0          0          0   entry2.o
         4          0          0          0          0          0   entry5.o
         0          0          0          0          0          0   entry7b.o
         0          0          0          0          0          0   entry8b.o
         8          4          0          0          0          0   entry9a.o
        12          6          0          4          0         68   errno.o
        30          0          0          0          0          0   handlers.o
        36          8          0          0          0         68   init.o
         0          0          0          0          0          0   iusefp.o
        30          0          0          0          0         68   llshl.o
        36          0          0          0          0         68   llsshr.o
        32          0          0          0          0         68   llushr.o
      2258         90          0          0          0        452   printfa.o
         0          0          0          4          0          0   stdout.o
        44          0          0          0          0         80   uidiv.o
        98          0          0          0          0         92   uldiv.o
        48          0          0          0          0         68   cdcmple.o
        48          0          0          0          0         68   cdrcmple.o
        20          0          0          0          0         68   cfcmple.o
        20          0          0          0          0         68   cfrcmple.o
        56          0          0          0          0         88   d2f.o
       334          0          0          0          0        148   dadd.o
       222          0          0          0          0        100   ddiv.o
       186          0          0          0          0        176   depilogue.o
        62          0          0          0          0         80   dfixi.o
        50          0          0          0          0         76   dfixui.o
        48          0          0          0          0         68   dfixul.o
        34          0          0          0          0         76   dflti.o
        26          0          0          0          0         76   dfltui.o
       228          0          0          0          0         96   dmul.o
        46          0          0          0          0         80   dscalb.o
       162          0          0          0          0        100   dsqrt.o
        38          0          0          0          0         68   f2d.o
       176          0          0          0          0        140   fadd.o
       124          0          0          0          0         88   fdiv.o
       110          0          0          0          0        168   fepilogue.o
        50          0          0          0          0         68   ffixi.o
        18          0          0          0          0         68   fflti.o
        10          0          0          0          0         68   ffltui.o
       100          0          0          0          0         76   fmul.o
        94          0          0          0          0         96   fsqrt.o

    ----------------------------------------------------------------------
      8632        406        528          8          0       4880   Library Totals
        12          0          0          0          0          0   (incl. Padding)

    ----------------------------------------------------------------------

      Code (inc. data)   RO Data    RW Data    ZI Data      Debug   Library Name

      3628        294        528          0          0       1640   m_ws.l
      2682        112          0          8          0        964   mc_w.l
      2310          0          0          0          0       2276   mf_w.l

    ----------------------------------------------------------------------
      8632        406        528          8          0       4880   Library Totals

    ----------------------------------------------------------------------

==============================================================================


      Code (inc. data)   RO Data    RW Data    ZI Data      Debug   

     43548       3900       2940       3452       6468     476965   Grand Totals
     43548       3900       2940       1252       6468     476965   ELF Image Totals (compressed)
     43548       3900       2940       1252          0          0   ROM Totals

==============================================================================

    Total RO  Size (Code + RO Data)                46488 (  45.40kB)
    Total RW  Size (RW Data + ZI Data)              9920 (   9.69kB)
    Total ROM Size (Code + RO Data + RW Data)      47740 (  46.62kB)

==============================================================================

